((lp1
S'28583061'
p2
aS'28583063'
p3
aS'28583059'
p4
aS'28583071'
p5
aS'28583099'
p6
aS'28583086'
p7
aS'28583088'
p8
aS'28583084'
p9
aS'28583052'
p10
aS'28583089'
p11
aS'28583058'
p12
aS'28583065'
p13
aS'28583062'
p14
aS'28583095'
p15
aS'28583073'
p16
aS'28583060'
p17
aS'28583077'
p18
aS'28583053'
p19
aS'28583097'
p20
aS'28583072'
p21
aS'28583051'
p22
aS'28583064'
p23
aS'28583057'
p24
a(lp25
g24
aS'28583081'
p26
aS'28583054'
p27
a(lp28
S'28583100'
p29
aS'28583055'
p30
aS'28583066'
p31
at.