(lp1
ccollections
defaultdict
p2
(c__builtin__
set
p3
tRp4
S'11672959'
p5
g3
((lp6
(S'D012460'
S'D008206'
tp7
a(S'D012460'
S'D018805'
tp8
a(S'D012460'
S'D056486'
tp9
a(S'D012460'
S'D009205'
tp10
a(S'D012460'
S'D003872'
tp11
a(S'D012460'
S'D009393'
tp12
a(S'D012460'
S'D005334'
tp13
atRp14
sS'15188772'
p15
g3
((lp16
(S'D004837'
S'D017682'
tp17
atRp18
sS'20003049'
p19
g3
((lp20
(S'C031942'
S'D019106'
tp21
a(S'C031942'
S'D016063'
tp22
atRp23
sS'7088431'
p24
g3
((lp25
(S'D004054'
S'D014625'
tp26
a(S'D004054'
S'D018262'
tp27
atRp28
sS'9660111'
p29
g3
((lp30
(S'D019257'
S'D006948'
tp31
a(S'D014299'
S'D006948'
tp32
a(S'D012110'
S'D007035'
tp33
a(S'D003913'
S'D006948'
tp34
atRp35
sS'2348231'
p36
g3
((lp37
(S'D004176'
S'D006940'
tp38
a(S'D010431'
S'D007383'
tp39
atRp40
sS'12202650'
p41
g3
((lp42
(S'D002211'
S'D010146'
tp43
atRp44
sS'15572383'
p45
g3
((lp46
(S'D004317'
S'D011507'
tp47
atRp48
sS'6747681'
p49
g3
((lp50
(S'D002330'
S'D031300'
tp51
atRp52
sS'2334618'
p53
g3
((lp54
(S'D009020'
S'D018879'
tp55
a(S'D009020'
S'D020181'
tp56
a(S'D009020'
S'D020182'
tp57
atRp58
sS'1786266'
p59
g3
((lp60
(S'D007099'
S'D001480'
tp61
atRp62
sS'18217897'
p63
g3
((lp64
(S'D013792'
S'D013923'
tp65
atRp66
sS'10193204'
p67
g3
((lp68
(S'D004837'
S'D013927'
tp69
atRp70
sS'12443032'
p71
g3
((lp72
(S'D003042'
S'D002637'
tp73
atRp74
sS'2224762'
p75
g3
((lp76
(S'D004317'
S'D000505'
tp77
a(S'D004317'
S'D000380'
tp78
a(S'D004317'
S'D013921'
tp79
a(S'D004317'
S'D009325'
tp80
a(S'D004317'
S'D000740'
tp81
a(S'D004317'
S'D010689'
tp82
a(S'D004317'
S'D052016'
tp83
atRp84
sS'8690168'
p85
g3
((lp86
(S'D013311'
S'D003928'
tp87
atRp88
sS'19058010'
p89
g3
((lp90
(S'D007545'
S'D009203'
tp91
atRp92
sS'15602202'
p93
g3
((lp94
(S'D017963'
S'D009395'
tp95
atRp96
sS'14659530'
p97
g3
((lp98
(S'D005996'
S'D020326'
tp99
a(S'D009569'
S'D020326'
tp100
atRp101
sS'17343925'
p102
g3
((lp103
(S'D012906'
S'D034381'
tp104
atRp105
sS'1592014'
p106
g3
((lp107
(S'D003042'
S'D012640'
tp108
a(S'C005618'
S'D012640'
tp109
atRp110
sS'11391224'
p111
g3
((lp112
(S'D003042'
S'D058186'
tp113
atRp114
sS'1732369'
p115
g3
((lp116
(S'D004317'
S'D009202'
tp117
atRp118
sS'20080419'
p119
g3
((lp120
(S'D010862'
S'D013226'
tp121
a(S'D010862'
S'D004827'
tp122
atRp123
sS'12464714'
p124
g3
((lp125
(S'C093622'
S'D009325'
tp126
a(S'C093622'
S'D004244'
tp127
atRp128
sS'16787750'
p129
g3
((lp130
(S'D014635'
S'D003244'
tp131
a(S'D014635'
S'D001927'
tp132
a(S'D014635'
S'D010195'
tp133
a(S'D014635'
S'D001855'
tp134
a(S'D014635'
S'D056486'
tp135
atRp136
sS'3719553'
p137
g3
((lp138
(S'D005472'
S'D000799'
tp139
atRp140
sS'7582165'
p141
g3
((lp142
(S'D010248'
S'D003231'
tp143
a(S'D010248'
S'D014581'
tp144
a(S'D003907'
S'D003231'
tp145
a(S'D003907'
S'D014581'
tp146
atRp147
sS'11007689'
p148
g3
((lp149
(S'D016572'
S'D057049'
tp150
a(S'D016559'
S'D057049'
tp151
atRp152
sS'10342929'
p153
g3
((lp154
(S'D000806'
S'D000799'
tp155
atRp156
sS'17437408'
p157
g3
((lp158
(S'D010862'
S'D012640'
tp159
atRp160
sS'11431197'
p161
g3
((lp162
(S'D011899'
S'D009395'
tp163
atRp164
sS'10791295'
p165
g3
((lp166
(S'D001058'
S'D010554'
tp167
atRp168
sS'3031535'
p169
g3
((lp170
(S'D006220'
S'D002375'
tp171
a(S'D013759'
S'D002375'
tp172
atRp173
sS'6133211'
p174
g3
((lp175
(S'D012460'
S'D007690'
tp176
a(S'D012460'
S'D003025'
tp177
a(S'D012460'
S'D006345'
tp178
a(S'D012460'
S'D001017'
tp179
atRp180
sS'17175308'
p181
g3
((lp182
(S'D020123'
S'D011507'
tp183
atRp184
sS'18821488'
p185
g3
((lp186
(S'C068820'
S'D006456'
tp187
a(S'C068820'
S'D007674'
tp188
a(S'C068820'
S'D056486'
tp189
a(S'C068820'
S'D009212'
tp190
atRp191
sS'2024540'
p192
g3
((lp193
(S'D000806'
S'D007022'
tp194
a(S'D011224'
S'D007022'
tp195
atRp196
sS'15804801'
p197
g3
((lp198
(S'D017239'
S'D003323'
tp199
atRp200
sS'20477932'
p201
g3
((lp202
(S'D003042'
S'D007859'
tp203
a(S'D003042'
S'D008569'
tp204
atRp205
sS'26094'
p206
g3
((lp207
(S'D008750'
S'D003866'
tp208
atRp209
sS'14568327'
p210
g3
((lp211
(S'D015632'
S'D010302'
tp212
a(S'D007980'
S'D004409'
tp213
atRp214
sS'17879945'
p215
g3
((lp216
(S'D019438'
S'D050197'
tp217
atRp218
sS'17244258'
p219
g3
((lp220
(S'D003520'
S'D003556'
tp221
atRp222
sS'19843802'
p223
g3
((lp224
(S'D004837'
S'D006973'
tp225
atRp226
sS'11027905'
p227
g3
((lp228
(S'D007649'
S'D006212'
tp229
atRp230
sS'1420741'
p231
g3
((lp232
(S'D005672'
S'D009325'
tp233
atRp234
sS'6466532'
p235
g3
((lp236
(S'D013390'
S'D001919'
tp237
atRp238
sS'19820426'
p239
g3
((lp240
(S'C558899'
S'D002311'
tp241
a(S'C558899'
S'D001919'
tp242
a(S'C558899'
S'D006327'
tp243
atRp244
sS'20698227'
p245
g3
((lp246
(S'C471405'
S'D006461'
tp247
a(S'C473478'
S'D006461'
tp248
atRp249
sS'6308277'
p250
g3
((lp251
(S'D010433'
S'D012640'
tp252
a(S'D002110'
S'D012640'
tp253
atRp254
sS'12369736'
p255
g3
((lp256
(S'C065046'
S'D009069'
tp257
a(S'D003042'
S'D009069'
tp258
atRp259
sS'17562951'
p260
g3
((lp261
(S'D003287'
S'D007674'
tp262
a(S'C044834'
S'D007674'
tp263
a(S'D007479'
S'D007674'
tp264
atRp265
sS'18261172'
p266
g3
((lp267
(S'D020123'
S'D011507'
tp268
atRp269
sS'12574103'
p270
g3
((lp271
(S'D003907'
S'D007674'
tp272
a(S'D003907'
S'D006973'
tp273
atRp274
sS'9390208'
p275
g3
((lp276
(S'C085788'
S'D006331'
tp277
a(S'C085788'
S'D007970'
tp278
atRp279
sS'8741744'
p280
g3
((lp281
(S'D009538'
S'D006948'
tp282
atRp283
sS'7802851'
p284
g3
((lp285
(S'D000525'
S'D003866'
tp286
a(S'D000525'
S'D001259'
tp287
a(S'D000525'
S'D008569'
tp288
a(S'D000525'
S'D004775'
tp289
a(S'D000525'
S'D015431'
tp290
atRp291
sS'16858720'
p292
g3
((lp293
(S'D014859'
S'D002543'
tp294
atRp295
sS'6861444'
p296
g3
((lp297
(S'D009638'
S'D006973'
tp298
atRp299
sS'8231633'
p300
g3
((lp301
(S'D002045'
S'D012640'
tp302
atRp303
sS'12617329'
p304
g3
((lp305
(S'D005839'
S'D058186'
tp306
a(S'D006170'
S'D058186'
tp307
atRp308
sS'10683478'
p309
g3
((lp310
(S'D001058'
S'D006948'
tp311
a(S'D001058'
S'D007035'
tp312
atRp313
sS'18083142'
p314
g3
((lp315
(S'D003042'
S'D001008'
tp316
atRp317
sS'3425586'
p318
g3
((lp319
(S'D003622'
S'D000743'
tp320
atRp321
sS'2355241'
p322
g3
((lp323
(S'D007980'
S'D007022'
tp324
atRp325
sS'3412544'
p326
g3
((lp327
(S'D010615'
S'D007680'
tp328
a(S'D010615'
S'D007681'
tp329
a(S'D010615'
S'D001749'
tp330
atRp331
sS'7858459'
p332
g3
((lp333
(S'D002955'
S'D003221'
tp334
a(S'D005472'
S'D003221'
tp335
a(S'D002955'
S'D003128'
tp336
a(S'D005472'
S'D003128'
tp337
atRp338
sS'17042910'
p339
g3
((lp340
(S'D003907'
S'D006973'
tp341
atRp342
sS'19445921'
p343
g3
((lp344
(S'D007545'
S'D009203'
tp345
atRp346
sS'2070391'
p347
g3
((lp348
(S'D008012'
S'D010146'
tp349
atRp350
sS'16330293'
p351
g3
((lp352
(S'D009538'
S'D006606'
tp353
a(S'D009538'
S'D009325'
tp354
a(S'D009538'
S'D006261'
tp355
atRp356
sS'9653867'
p357
g3
((lp358
(S'D013974'
S'D013971'
tp359
atRp360
sS'18186898'
p361
g3
((lp362
(S'D019259'
S'D005198'
tp363
a(S'D016559'
S'D005198'
tp364
a(S'D016559'
S'D009135'
tp365
a(S'D019259'
S'D009135'
tp366
atRp367
sS'15649445'
p368
g3
((lp369
(S'D012110'
S'D004409'
tp370
a(S'D006220'
S'D004409'
tp371
atRp372
sS'1992636'
p373
g3
((lp374
(S'D009853'
S'D004417'
tp375
a(S'D009853'
S'D000743'
tp376
a(S'D009853'
S'D053609'
tp377
atRp378
sS'14513889'
p379
g3
((lp380
(S'D007654'
S'D010243'
tp381
a(S'D007654'
S'D004401'
tp382
a(S'D007654'
S'D018908'
tp383
a(S'D007654'
S'D014202'
tp384
atRp385
sS'9199746'
p386
g3
((lp387
(S'D000583'
S'D007511'
tp388
a(S'D000583'
S'D012164'
tp389
atRp390
sS'15737522'
p391
g3
((lp392
(S'D002443'
S'D001660'
tp393
atRp394
sS'8386779'
p395
g3
((lp396
(S'D010646'
S'D004414'
tp397
a(S'D000527'
S'D004414'
tp398
atRp399
sS'17854040'
p400
g3
((lp401
(S'D006514'
S'D006509'
tp402
atRp403
sS'11679859'
p404
g3
((lp405
(S'D011346'
S'D017109'
tp406
atRp407
sS'2304736'
p408
g3
((lp409
(S'D011224'
S'D014550'
tp410
atRp411
sS'18726058'
p412
g3
((lp413
(S'D010208'
S'D006319'
tp414
a(S'D010208'
S'D000160'
tp415
atRp416
sS'8437969'
p417
g3
((lp418
(S'D002927'
S'D054138'
tp419
a(S'D002927'
S'D001919'
tp420
atRp421
sS'9245658'
p422
g3
((lp423
(S'D009538'
S'D002318'
tp424
a(S'D009538'
S'D050197'
tp425
atRp426
sS'9100294'
p427
g3
((lp428
(S'D009543'
S'D018376'
tp429
a(S'D014700'
S'D018376'
tp430
a(S'D020748'
S'D018376'
tp431
atRp432
sS'1549199'
p433
g3
((lp434
(S'D007980'
S'D020447'
tp435
a(S'D007980'
S'D007024'
tp436
a(S'D007980'
S'D005767'
tp437
atRp438
sS'8073369'
p439
g3
((lp440
(S'C007112'
S'D001176'
tp441
a(S'D009538'
S'D001176'
tp442
a(S'D009538'
S'D002543'
tp443
atRp444
sS'9284778'
p445
g3
((lp446
(S'C067411'
S'D008107'
tp447
a(S'C072959'
S'D008107'
tp448
atRp449
sS'9587734'
p450
g3
((lp451
(S'D013390'
S'D001919'
tp452
a(S'D013390'
S'D004342'
tp453
a(S'D013390'
S'D006323'
tp454
a(S'D013390'
S'D006947'
tp455
atRp456
sS'435349'
p457
g3
((lp458
(S'D013390'
S'D005207'
tp459
atRp460
sS'17147461'
p461
g3
((lp462
(S'D020123'
S'D007674'
tp463
a(S'D020123'
S'D011507'
tp464
atRp465
sS'18410508'
p466
g3
((lp467
(S'D008694'
S'D009422'
tp468
a(S'D015632'
S'D009422'
tp469
atRp470
sS'19356053'
p471
g3
((lp472
(S'D020123'
S'D011507'
tp473
atRp474
sS'7930386'
p475
g3
((lp476
(S'D002997'
S'D012893'
tp477
atRp478
sS'7199841'
p479
g3
((lp480
(S'C004616'
S'D013118'
tp481
a(S'C004616'
S'D010243'
tp482
atRp483
sS'2396046'
p484
g3
((lp485
(S'D002794'
S'D006528'
tp486
atRp487
sS'2266990'
p488
g3
((lp489
(S'D008454'
S'D012817'
tp490
a(S'D008454'
S'D001068'
tp491
a(S'D008454'
S'D014987'
tp492
atRp493
sS'7977601'
p494
g3
((lp495
(S'D007208'
S'D005076'
tp496
a(S'D007208'
S'D014581'
tp497
a(S'D007208'
S'D010146'
tp498
a(S'D007208'
S'D011537'
tp499
a(S'D007208'
S'D012769'
tp500
a(S'D007208'
S'D007022'
tp501
a(S'D007208'
S'D009325'
tp502
atRp503
sS'11250767'
p504
g3
((lp505
(S'D011441'
S'D005334'
tp506
a(S'D011441'
S'D005921'
tp507
a(S'D011441'
S'D010493'
tp508
atRp509
sS'21029050'
p510
g3
((lp511
(S'D013390'
S'D001049'
tp512
atRp513
sS'12483326'
p514
g3
((lp515
(S'D016190'
S'D010211'
tp516
a(S'D016190'
S'D014786'
tp517
a(S'D016190'
S'D012163'
tp518
a(S'D016190'
S'D009916'
tp519
a(S'D016190'
S'D009896'
tp520
a(S'D016190'
S'D058447'
tp521
atRp522
sS'7834920'
p523
g3
((lp524
(S'D012293'
S'D005921'
tp525
a(S'D012293'
S'D051437'
tp526
atRp527
sS'2887062'
p528
g3
((lp529
(S'D004967'
S'D015175'
tp530
atRp531
sS'19037603'
p532
g3
((lp533
(S'D006514'
S'D006509'
tp534
atRp535
sS'9855119'
p536
g3
((lp537
(S'D016559'
S'D005923'
tp538
atRp539
sS'18951540'
p540
g3
((lp541
(S'D007980'
S'D004409'
tp542
atRp543
sS'8387218'
p544
g3
((lp545
(S'D016049'
S'D010523'
tp546
a(S'D016049'
S'D003967'
tp547
a(S'D016049'
S'D018149'
tp548
a(S'D016049'
S'D010195'
tp549
atRp550
sS'2522601'
p551
g3
((lp552
(S'D002220'
S'D004342'
tp553
a(S'D002220'
S'D007955'
tp554
a(S'D002220'
S'D007010'
tp555
a(S'D002220'
S'D003873'
tp556
a(S'D002220'
S'D051437'
tp557
atRp558
sS'8955532'
p559
g3
((lp560
(S'D010656'
S'D006973'
tp561
atRp562
sS'10406016'
p563
g3
((lp564
(S'C007789'
S'D001929'
tp565
a(S'C007789'
S'D020141'
tp566
atRp567
sS'15130900'
p568
g3
((lp569
(S'D003520'
S'D001749'
tp570
atRp571
sS'2802551'
p572
g3
((lp573
(S'D000666'
S'D007674'
tp574
atRp575
sS'2870085'
p576
g3
((lp577
(S'D007545'
S'D013610'
tp578
atRp579
sS'7628595'
p580
g3
((lp581
(S'D015215'
S'D001855'
tp582
atRp583
sS'3437726'
p584
g3
((lp585
(S'D008790'
S'D007022'
tp586
a(S'D004110'
S'D007022'
tp587
a(S'D004110'
S'D054537'
tp588
a(S'D008790'
S'D018754'
tp589
a(S'D004110'
S'D018754'
tp590
a(S'D008790'
S'D054537'
tp591
atRp592
sS'3403780'
p593
g3
((lp594
(S'D000082'
S'D017114'
tp595
a(S'D000082'
S'D000138'
tp596
a(S'D000082'
S'D058186'
tp597
atRp598
sS'9523805'
p599
g3
((lp600
(S'D008012'
S'D009422'
tp601
a(S'D011318'
S'D009422'
tp602
atRp603
sS'8410052'
p604
g3
((lp605
(S'D010862'
S'D001480'
tp606
a(S'D010862'
S'D013226'
tp607
a(S'D010862'
S'D002544'
tp608
atRp609
sS'7919560'
p610
g3
((lp611
(S'D000667'
S'D004892'
tp612
a(S'D000667'
S'D004342'
tp613
a(S'D000667'
S'D009205'
tp614
atRp615
sS'3560095'
p616
g3
((lp617
(S'D005480'
S'D006261'
tp618
a(S'D005480'
S'D006471'
tp619
a(S'D005480'
S'D015746'
tp620
atRp621
sS'16740173'
p622
g3
((lp623
(S'D002217'
S'D009325'
tp624
a(S'D002217'
S'D006945'
tp625
a(S'D002217'
S'D012798'
tp626
a(S'D002217'
S'D006323'
tp627
a(S'D002217'
S'D015877'
tp628
a(S'D002217'
S'D006333'
tp629
a(S'D002217'
S'D001919'
tp630
a(S'D002217'
S'D007022'
tp631
atRp632
sS'12789195'
p633
g3
((lp634
(S'D008914'
S'D000172'
tp635
atRp636
sS'10835440'
p637
g3
((lp638
(S'D009553'
S'D007022'
tp639
atRp640
sS'6888657'
p641
g3
((lp642
(S'D004054'
S'D010911'
tp643
atRp644
sS'18439803'
p645
g3
((lp646
(S'D010862'
S'D012640'
tp647
atRp648
sS'7053303'
p649
g3
((lp650
(S'D002927'
S'D003704'
tp651
atRp652
sS'137340'
p653
g3
((lp654
(S'D012601'
S'D006948'
tp655
a(S'D009020'
S'D006948'
tp656
atRp657
sS'1720453'
p658
g3
((lp659
(S'D007069'
S'D005198'
tp660
a(S'D007069'
S'D007674'
tp661
atRp662
sS'2054792'
p663
g3
((lp664
(S'D004317'
S'D006331'
tp665
atRp666
sS'567256'
p667
g3
((lp668
(S'D004054'
S'D006394'
tp669
a(S'D004054'
S'D008113'
tp670
atRp671
sS'20084309'
p672
g3
((lp673
(S'D008874'
S'D000860'
tp674
atRp675
sS'19767176'
p676
g3
((lp677
(S'D010862'
S'D013226'
tp678
a(S'D010862'
S'D009410'
tp679
atRp680
sS'7453952'
p681
g3
((lp682
(S'D008094'
S'D003919'
tp683
atRp684
sS'8170551'
p685
g3
((lp686
(S'D000086'
S'D007669'
tp687
atRp688
sS'8752018'
p689
g3
((lp690
(S'D008094'
S'D003072'
tp691
atRp692
sS'15275829'
p693
g3
((lp694
(S'D009538'
S'D012640'
tp695
atRp696
sS'8739323'
p697
g3
((lp698
(S'D003520'
S'D003556'
tp699
a(S'D003520'
S'D006470'
tp700
atRp701
sS'17261653'
p702
g3
((lp703
(S'D003000'
S'D001919'
tp704
atRp705
sS'20196116'
p706
g3
((lp707
(S'D000995'
S'D017114'
tp708
atRp709
sS'3970039'
p710
g3
((lp711
(S'D003520'
S'D001749'
tp712
a(S'D003520'
S'D002277'
tp713
a(S'D000477'
S'D015470'
tp714
a(S'D000477'
S'D008228'
tp715
a(S'D001379'
S'D008228'
tp716
atRp717
sS'3173180'
p718
g3
((lp719
(S'D008795'
S'D006463'
tp720
atRp721
sS'12198388'
p722
g3
((lp723
(S'D009388'
S'D012640'
tp724
a(S'D009538'
S'D012640'
tp725
a(S'D002217'
S'D012640'
tp726
atRp727
sS'8996652'
p728
g3
((lp729
(S'D000617'
S'D006319'
tp730
a(S'D005665'
S'D006319'
tp731
atRp732
sS'7420681'
p733
g3
((lp734
(S'D014031'
S'D051437'
tp735
a(S'D005839'
S'D051437'
tp736
atRp737
sS'1085609'
p738
g3
((lp739
(S'D007538'
S'D012640'
tp740
atRp741
sS'2096243'
p742
g3
((lp743
(S'C017367'
S'D019965'
tp744
a(S'C017367'
S'D056784'
tp745
atRp746
sS'15325671'
p747
g3
((lp748
(S'D003520'
S'D006333'
tp749
atRp750
sS'12695819'
p751
g3
((lp752
(S'D016559'
S'D056784'
tp753
atRp754
sS'9334596'
p755
g3
((lp756
(S'D013739'
S'D020018'
tp757
atRp758
sS'11875660'
p759
g3
((lp760
(S'D001374'
S'D000757'
tp761
atRp762
sS'10807237'
p763
g3
((lp764
(S'D003042'
S'D017542'
tp765
atRp766
sS'7468724'
p767
g3
((lp768
(S'D013726'
S'D002318'
tp769
atRp770
sS'7248170'
p771
g3
((lp772
(S'D010634'
S'D008103'
tp773
a(S'D010634'
S'D006529'
tp774
a(S'D002251'
S'D008103'
tp775
atRp776
sS'3125768'
p777
g3
((lp778
(S'D015760'
S'D009127'
tp779
atRp780
sS'17931375'
p781
g3
((lp782
(S'D006493'
S'D003288'
tp783
a(S'D006493'
S'D010146'
tp784
atRp785
sS'9746003'
p786
g3
((lp787
(S'D002220'
S'D009207'
tp788
a(S'D020888'
S'D004832'
tp789
a(S'D002220'
S'D004832'
tp790
atRp791
sS'7423039'
p792
g3
((lp793
(S'D004317'
S'D066126'
tp794
atRp795
sS'11581460'
p796
g3
((lp797
(S'D005283'
S'D007022'
tp798
a(S'D005283'
S'D001745'
tp799
a(S'D005283'
S'D001919'
tp800
a(S'D005283'
S'D016055'
tp801
a(S'D005283'
S'D012131'
tp802
atRp803
sS'11706060'
p804
g3
((lp805
(S'D019469'
S'D009202'
tp806
a(S'D019259'
S'D009202'
tp807
a(S'D015215'
S'D009202'
tp808
atRp809
sS'18703024'
p810
g3
((lp811
(S'D006220'
S'D002375'
tp812
atRp813
sS'7444978'
p814
g3
((lp815
(S'D013307'
S'D004409'
tp816
a(S'D013307'
S'D003638'
tp817
atRp818
sS'12905102'
p819
g3
((lp820
(S'D003024'
S'D003693'
tp821
atRp822
sS'2673163'
p823
g3
((lp824
(S'D003042'
S'D002543'
tp825
a(S'D003042'
S'D013345'
tp826
a(S'D003042'
S'D002544'
tp827
atRp828
sS'2515254'
p829
g3
((lp830
(S'D005996'
S'D008881'
tp831
atRp832
sS'2924746'
p833
g3
((lp834
(S'D005481'
S'D012640'
tp835
atRp836
sS'19299179'
p837
g3
((lp838
(S'D015662'
S'D002780'
tp839
atRp840
sS'16680561'
p841
g3
((lp842
(S'C476217'
S'D006261'
tp843
a(S'C476217'
S'D009325'
tp844
a(S'D003891'
S'D006261'
tp845
a(S'D003891'
S'D009325'
tp846
atRp847
sS'3800626'
p848
g3
((lp849
(S'D010423'
S'D009408'
tp850
a(S'D010423'
S'D020425'
tp851
a(S'D010423'
S'D005355'
tp852
a(S'D010423'
S'D009135'
tp853
atRp854
sS'16938416'
p855
g3
((lp856
(S'D013739'
S'D050197'
tp857
atRp858
sS'6287825'
p859
g3
((lp860
(S'D013831'
S'D010523'
tp861
a(S'D012256'
S'D010523'
tp862
a(S'D007538'
S'D010523'
tp863
atRp864
sS'18809400'
p865
g3
((lp866
(S'D017239'
S'D010523'
tp867
a(S'D002945'
S'D009410'
tp868
a(S'D002945'
S'D010523'
tp869
a(S'D017239'
S'D009410'
tp870
atRp871
sS'11807648'
p872
g3
((lp873
(S'D014148'
S'D012640'
tp874
atRp875
sS'11135224'
p876
g3
((lp877
(S'D002945'
S'D009503'
tp878
a(S'D002945'
S'D013921'
tp879
a(S'C056507'
S'D009503'
tp880
a(S'D017239'
S'D013921'
tp881
a(S'D017239'
S'D009503'
tp882
a(S'C056507'
S'D013921'
tp883
atRp884
sS'15515654'
p885
g3
((lp886
(S'D003676'
S'D006319'
tp887
atRp888
sS'6534871'
p889
g3
((lp890
(S'D007545'
S'D009203'
tp891
atRp892
sS'18619688'
p893
g3
((lp894
(S'D004317'
S'D006333'
tp895
atRp896
sS'18417364'
p897
g3
((lp898
(S'D009538'
S'D009759'
tp899
atRp900
sS'3101906'
p901
g3
((lp902
(S'D007654'
S'D056486'
tp903
a(S'D007654'
S'D007565'
tp904
a(S'D007654'
S'D002779'
tp905
atRp906
sS'14596845'
p907
g3
((lp908
(S'D013395'
S'D006948'
tp909
a(S'D000661'
S'D006948'
tp910
atRp911
sS'3782049'
p912
g3
((lp913
(S'D008972'
S'D058186'
tp914
a(S'D008972'
S'D012206'
tp915
atRp916
sS'17466854'
p917
g3
((lp918
(S'D005839'
S'D020250'
tp919
a(S'D005839'
S'D006261'
tp920
a(S'D008775'
S'D006261'
tp921
a(S'D008775'
S'D020250'
tp922
atRp923
sS'14976857'
p924
g3
((lp925
(S'D011405'
S'D003490'
tp926
a(S'D011405'
S'D018754'
tp927
a(S'D011405'
S'D000860'
tp928
atRp929
sS'6203452'
p930
g3
((lp931
(S'D014748'
S'D011697'
tp932
a(S'D001761'
S'D007674'
tp933
a(S'D002945'
S'D011697'
tp934
a(S'D014748'
S'D006463'
tp935
a(S'D001761'
S'D011697'
tp936
a(S'D001761'
S'D006463'
tp937
a(S'D002945'
S'D007674'
tp938
a(S'D002945'
S'D006463'
tp939
a(S'D014748'
S'D007674'
tp940
atRp941
sS'2008831'
p942
g3
((lp943
(S'D008755'
S'D003329'
tp944
atRp945
sS'3187073'
p946
g3
((lp947
(S'D005472'
S'D014693'
tp948
a(S'D002945'
S'D014693'
tp949
a(S'D002945'
S'D001281'
tp950
a(S'D005472'
S'D002318'
tp951
a(S'D002945'
S'D002637'
tp952
a(S'D005472'
S'D002637'
tp953
a(S'D002945'
S'D002318'
tp954
a(S'D005472'
S'D001281'
tp955
atRp956
sS'84204'
p957
g3
((lp958
(S'D002927'
S'D003221'
tp959
atRp960
sS'15957009'
p961
g3
((lp962
(S'D012601'
S'D008569'
tp963
atRp964
sS'8372922'
p965
g3
((lp966
(S'D007612'
S'D034381'
tp967
a(S'D005665'
S'D034381'
tp968
atRp969
sS'7234705'
p970
g3
((lp971
(S'D011342'
S'D017180'
tp972
atRp973
sS'20621845'
p974
g3
((lp975
(S'D002122'
S'D017545'
tp976
atRp977
sS'3409645'
p978
g3
((lp979
(S'D008727'
S'D007172'
tp980
atRp981
sS'17400887'
p982
g3
((lp983
(S'D013726'
S'D001321'
tp984
atRp985
sS'17491223'
p986
g3
((lp987
(S'D004280'
S'D017202'
tp988
atRp989
sS'16574712'
p990
g3
((lp991
(S'D018817'
S'D003072'
tp992
atRp993
sS'19473225'
p994
g3
((lp995
(S'D017239'
S'D010523'
tp996
atRp997
sS'1130930'
p998
g3
((lp999
(S'D002512'
S'D009846'
tp1000
a(S'D005839'
S'D007683'
tp1001
a(S'D002512'
S'D007683'
tp1002
a(S'D005839'
S'D009846'
tp1003
atRp1004
sS'424937'
p1005
g3
((lp1006
(S'D008750'
S'D009325'
tp1007
a(S'D008750'
S'D007565'
tp1008
a(S'D008750'
S'D006529'
tp1009
a(S'D008750'
S'D056486'
tp1010
a(S'D008750'
S'D000855'
tp1011
a(S'D008750'
S'D009336'
tp1012
a(S'D008750'
S'D005234'
tp1013
a(S'D008750'
S'D002779'
tp1014
a(S'D008750'
S'D015746'
tp1015
a(S'D008750'
S'D014839'
tp1016
atRp1017
sS'12615818'
p1018
g3
((lp1019
(S'D004997'
S'D054556'
tp1020
a(S'D017373'
S'D054556'
tp1021
atRp1022
sS'16298782'
p1023
g3
((lp1024
(S'D005839'
S'D034381'
tp1025
atRp1026
sS'8319760'
p1027
g3
((lp1028
(S'D011692'
S'D011507'
tp1029
a(S'D011692'
S'D009404'
tp1030
a(S'D011692'
S'D034141'
tp1031
a(S'D011692'
S'D006937'
tp1032
atRp1033
sS'4071154'
p1034
g3
((lp1035
(S'D007213'
S'D005355'
tp1036
a(S'D007213'
S'D009846'
tp1037
a(S'D007213'
S'D001201'
tp1038
a(S'D007213'
S'D006947'
tp1039
a(S'D007213'
S'D011660'
tp1040
a(S'D007213'
S'D058186'
tp1041
atRp1042
sS'6640832'
p1043
g3
((lp1044
(S'D004317'
S'D003556'
tp1045
atRp1046
sS'11928786'
p1047
g3
((lp1048
(S'D016642'
S'D013610'
tp1049
a(S'D016642'
S'D006212'
tp1050
a(S'D016642'
S'D001145'
tp1051
a(S'D016642'
S'D006323'
tp1052
a(S'D016642'
S'D012640'
tp1053
atRp1054
sS'18329269'
p1055
g3
((lp1056
(S'D006220'
S'D002375'
tp1057
atRp1058
sS'19308880'
p1059
g3
((lp1060
(S'D014635'
S'D003221'
tp1061
atRp1062
sS'3856631'
p1063
g3
((lp1064
(S'D008727'
S'D010291'
tp1065
a(S'D008727'
S'D012640'
tp1066
a(S'D008727'
S'D009503'
tp1067
a(S'D008727'
S'D052016'
tp1068
atRp1069
sS'12716030'
p1070
g3
((lp1071
(S'D006493'
S'D006406'
tp1072
atRp1073
sS'8701950'
p1074
g3
((lp1075
(S'D016559'
S'D000743'
tp1076
atRp1077
sS'1436384'
p1078
g3
((lp1079
(S'D000661'
S'D020258'
tp1080
atRp1081
sS'7516729'
p1082
g3
((lp1083
(S'D014700'
S'D001919'
tp1084
atRp1085
sS'2484011'
p1086
g3
((lp1087
(S'D000547'
S'D011596'
tp1088
atRp1089
sS'3827439'
p1090
g3
((lp1091
(S'D000666'
S'D058186'
tp1092
atRp1093
sS'10457883'
p1094
g3
((lp1095
(S'D001279'
S'D001919'
tp1096
a(S'D001279'
S'D001049'
tp1097
a(S'D001279'
S'D012131'
tp1098
atRp1099
sS'3615541'
p1100
g3
((lp1101
(S'D000661'
S'D006948'
tp1102
atRp1103
sS'16274958'
p1104
g3
((lp1105
(S'D017255'
S'D055154'
tp1106
atRp1107
sS'1147734'
p1108
g3
((lp1109
(S'D011441'
S'D006521'
tp1110
atRp1111
sS'15278670'
p1112
g3
((lp1113
(S'D008012'
S'D012640'
tp1114
atRp1115
sS'10743446'
p1116
g3
((lp1117
(S'D002211'
S'D010146'
tp1118
a(S'D002211'
S'D006930'
tp1119
atRp1120
sS'3629586'
p1121
g3
((lp1122
(S'C021341'
S'D013921'
tp1123
a(S'D015790'
S'D009503'
tp1124
a(S'D015790'
S'D013921'
tp1125
a(S'C021341'
S'D009503'
tp1126
a(S'C021341'
S'D000740'
tp1127
a(S'D015790'
S'D000740'
tp1128
atRp1129
sS'11256525'
p1130
g3
((lp1131
(S'D019808'
S'D001002'
tp1132
atRp1133
sS'17532790'
p1134
g3
((lp1135
(S'D007980'
S'D004409'
tp1136
atRp1137
sS'9034419'
p1138
g3
((lp1139
(S'C047426'
S'D012640'
tp1140
a(S'C047426'
S'D062787'
tp1141
atRp1142
sS'3173179'
p1143
g3
((lp1144
(S'D014700'
S'D009203'
tp1145
atRp1146
sS'10579464'
p1147
g3
((lp1148
(S'C121249'
S'D002375'
tp1149
a(S'D008694'
S'D006948'
tp1150
a(S'D003024'
S'D002375'
tp1151
atRp1152
sS'12584269'
p1153
g3
((lp1154
(S'D020123'
S'D007674'
tp1155
a(S'D016572'
S'D007674'
tp1156
a(S'D016559'
S'D007674'
tp1157
atRp1158
sS'2572625'
p1159
g3
((lp1160
(S'C084599'
S'D056486'
tp1161
atRp1162
sS'20880751'
p1163
g3
((lp1164
(S'D007980'
S'D004409'
tp1165
atRp1166
sS'6666578'
p1167
g3
((lp1168
(S'D010396'
S'D001018'
tp1169
atRp1170
sS'11147747'
p1171
g3
((lp1172
(S'C047426'
S'D014549'
tp1173
a(S'D016651'
S'D014549'
tp1174
a(S'D017374'
S'D014549'
tp1175
a(S'D018490'
S'D014549'
tp1176
a(S'D020280'
S'D014549'
tp1177
atRp1178
sS'19759529'
p1179
g3
((lp1180
(S'D016291'
S'D006948'
tp1181
a(S'D006220'
S'D002375'
tp1182
a(S'D000661'
S'D006948'
tp1183
a(S'C094645'
S'D002375'
tp1184
a(S'D003024'
S'D002375'
tp1185
a(S'C076029'
S'D002375'
tp1186
atRp1187
sS'9195768'
p1188
g3
((lp1189
(S'D018170'
S'D010292'
tp1190
atRp1191
sS'12707296'
p1192
g3
((lp1193
(S'C021650'
S'D006973'
tp1194
atRp1195
sS'8649546'
p1196
g3
((lp1197
(S'D007980'
S'D004409'
tp1198
atRp1199
sS'16330766'
p1200
g3
((lp1201
(S'D002211'
S'D006930'
tp1202
atRp1203
sS'6103707'
p1204
g3
((lp1205
(S'D005445'
S'D004244'
tp1206
a(S'D005445'
S'D010146'
tp1207
atRp1208
sS'16428221'
p1209
g3
((lp1210
(S'D008774'
S'D020293'
tp1211
atRp1212
sS'17612891'
p1213
g3
((lp1214
(S'D003024'
S'D009205'
tp1215
a(S'D000928'
S'D009205'
tp1216
atRp1217
sS'7862923'
p1218
g3
((lp1219
(S'D006220'
S'D001480'
tp1220
a(S'D003024'
S'D001480'
tp1221
a(S'C036006'
S'D001480'
tp1222
a(S'D002746'
S'D001480'
tp1223
atRp1224
sS'7269015'
p1225
g3
((lp1226
(S'D002066'
S'D003556'
tp1227
a(S'D002066'
S'D006470'
tp1228
atRp1229
sS'18182964'
p1230
g3
((lp1231
(S'D003000'
S'D001919'
tp1232
atRp1233
sS'8919272'
p1234
g3
((lp1235
(S'D014635'
S'D001927'
tp1236
atRp1237
sS'8643971'
p1238
g3
((lp1239
(S'D002945'
S'D010292'
tp1240
a(S'D002945'
S'D000505'
tp1241
a(S'D017239'
S'D018771'
tp1242
a(S'D017239'
S'D010292'
tp1243
a(S'D017239'
S'D000505'
tp1244
a(S'D002945'
S'D018771'
tp1245
atRp1246
sS'230316'
p1247
g3
((lp1248
(S'D007464'
S'D013118'
tp1249
a(S'D007464'
S'D001927'
tp1250
a(S'D007464'
S'D009896'
tp1251
a(S'D007464'
S'D010523'
tp1252
a(S'D007464'
S'D014786'
tp1253
atRp1254
sS'7292072'
p1255
g3
((lp1256
(S'D003891'
S'D017180'
tp1257
atRp1258
sS'220563'
p1259
g3
((lp1260
(S'C023470'
S'D003711'
tp1261
a(S'C023470'
S'D010523'
tp1262
atRp1263
sS'10901305'
p1264
g3
((lp1265
(S'D007649'
S'D014839'
tp1266
a(S'D007649'
S'D001259'
tp1267
a(S'D007649'
S'D009325'
tp1268
atRp1269
sS'12757899'
p1270
g3
((lp1271
(S'D010862'
S'D001930'
tp1272
a(S'D010862'
S'D013226'
tp1273
a(S'D008094'
S'D001930'
tp1274
a(S'D008094'
S'D013226'
tp1275
atRp1276
sS'17639754'
p1277
g3
((lp1278
(S'D014859'
S'D006470'
tp1279
a(S'D064704'
S'D006470'
tp1280
atRp1281
sS'227508'
p1282
g3
((lp1283
(S'D008750'
S'D007022'
tp1284
atRp1285
sS'15859940'
p1286
g3
((lp1287
(S'D016572'
S'D057049'
tp1288
atRp1289
sS'18208574'
p1290
g3
((lp1291
(S'D006493'
S'D013921'
tp1292
a(S'D006493'
S'D013927'
tp1293
atRp1294
sS'3676049'
p1295
g3
((lp1296
(S'D007530'
S'D007022'
tp1297
atRp1298
sS'1749407'
p1299
g3
((lp1300
(S'D003042'
S'D009203'
tp1301
atRp1302
sS'18791946'
p1303
g3
((lp1304
(S'D002939'
S'D013921'
tp1305
a(S'D002939'
S'D011693'
tp1306
a(S'D002939'
S'D015746'
tp1307
a(S'D002939'
S'D000743'
tp1308
a(S'D002939'
S'D007565'
tp1309
atRp1310
sS'4008111'
p1311
g3
((lp1312
(S'D000638'
S'D012848'
tp1313
atRp1314
sS'15036754'
p1315
g3
((lp1316
(S'D007531'
S'D012640'
tp1317
atRp1318
sS'1728522'
p1319
g3
((lp1320
(S'D019980'
S'D056486'
tp1321
a(S'D019980'
S'D006099'
tp1322
a(S'D019980'
S'D002779'
tp1323
atRp1324
sS'9088814'
p1325
g3
((lp1326
(S'D000527'
S'D007022'
tp1327
a(S'D000527'
S'D008107'
tp1328
atRp1329
sS'9522152'
p1330
g3
((lp1331
(S'D002045'
S'D012678'
tp1332
atRp1333
sS'10365197'
p1334
g3
((lp1335
(S'D003042'
S'D019964'
tp1336
atRp1337
sS'12820454'
p1338
g3
((lp1339
(S'D005485'
S'D000740'
tp1340
a(S'D016729'
S'D000740'
tp1341
atRp1342
sS'9406968'
p1343
g3
((lp1344
(S'D018021'
S'D011141'
tp1345
atRp1346
sS'3496378'
p1347
g3
((lp1348
(S'D014217'
S'D002779'
tp1349
a(S'D014217'
S'D056486'
tp1350
a(S'D014217'
S'D004802'
tp1351
a(S'D014217'
S'D011537'
tp1352
a(S'D014217'
S'D007565'
tp1353
atRp1354
sS'3341566'
p1355
g3
((lp1356
(S'D009599'
S'D007022'
tp1357
atRp1358
sS'3503576'
p1359
g3
((lp1360
(S'D003676'
S'D014786'
tp1361
a(S'D003676'
S'D006316'
tp1362
atRp1363
sS'17600377'
p1364
g3
((lp1365
(S'D012601'
S'D003072'
tp1366
atRp1367
sS'18308784'
p1368
g3
((lp1369
(S'D009020'
S'D007859'
tp1370
atRp1371
sS'8595686'
p1372
g3
((lp1373
(S'D015742'
S'D010146'
tp1374
atRp1375
sS'2476560'
p1376
g3
((lp1377
(S'D001556'
S'D000741'
tp1378
a(S'D001556'
S'D002493'
tp1379
atRp1380
sS'3865016'
p1381
g3
((lp1382
(S'D016572'
S'D006932'
tp1383
a(S'D005047'
S'D003221'
tp1384
a(S'D016572'
S'D003221'
tp1385
a(S'D005047'
S'D006932'
tp1386
atRp1387
sS'16755009'
p1388
g3
((lp1389
(S'D012601'
S'D000647'
tp1390
a(S'D003975'
S'D000647'
tp1391
atRp1392
sS'20882060'
p1393
g3
((lp1394
(S'D006220'
S'D002375'
tp1395
atRp1396
sS'3560096'
p1397
g3
((lp1398
(S'D013467'
S'D006947'
tp1399
a(S'D007213'
S'D006947'
tp1400
atRp1401
sS'8829025'
p1402
g3
((lp1403
(S'D016559'
S'D006973'
tp1404
atRp1405
sS'3371379'
p1406
g3
((lp1407
(S'D002220'
S'D020258'
tp1408
a(S'D014700'
S'D020258'
tp1409
atRp1410
sS'12041669'
p1411
g3
((lp1412
(S'D010396'
S'D000741'
tp1413
atRp1414
sS'18081909'
p1415
g3
((lp1416
(S'D014635'
S'D001927'
tp1417
a(S'D014635'
S'D008569'
tp1418
a(S'C026098'
S'D008569'
tp1419
a(S'C026098'
S'D001927'
tp1420
a(S'C026098'
S'D004830'
tp1421
a(S'D014635'
S'D004830'
tp1422
atRp1423
sS'19884587'
p1424
g3
((lp1425
(S'D013449'
S'D006548'
tp1426
a(S'D009582'
S'D002972'
tp1427
a(S'D009582'
S'D006344'
tp1428
a(S'D009582'
S'D002971'
tp1429
a(S'D013449'
S'D001017'
tp1430
a(S'D009582'
S'D000853'
tp1431
a(S'D013449'
S'D000757'
tp1432
a(S'D009582'
S'D000014'
tp1433
a(S'D013449'
S'D017880'
tp1434
a(S'D009582'
S'D008850'
tp1435
a(S'D013449'
S'D018636'
tp1436
a(S'D013449'
S'D002754'
tp1437
a(S'D013449'
S'D000014'
tp1438
a(S'D009582'
S'D018636'
tp1439
atRp1440
sS'603022'
p1441
g3
((lp1442
(S'D012601'
S'D062787'
tp1443
atRp1444
sS'8590259'
p1445
g3
((lp1446
(S'C016986'
S'D003316'
tp1447
a(S'C016986'
S'D003229'
tp1448
a(S'C016986'
S'D015878'
tp1449
a(S'C016986'
S'D004774'
tp1450
a(S'C016986'
S'D015814'
tp1451
atRp1452
sS'16160878'
p1453
g3
((lp1454
(S'D001058'
S'D010409'
tp1455
atRp1456
sS'2505783'
p1457
g3
((lp1458
(S'C004656'
S'D006470'
tp1459
a(S'C004656'
S'D003556'
tp1460
atRp1461
sS'20528871'
p1462
g3
((lp1463
(S'C104457'
S'D009422'
tp1464
a(S'C104457'
S'D059352'
tp1465
a(S'C104457'
S'D006402'
tp1466
atRp1467
sS'234669'
p1468
g3
((lp1469
(S'D000628'
S'D014693'
tp1470
atRp1471
sS'2273650'
p1472
g3
((lp1473
(S'D012601'
S'D000647'
tp1474
a(S'D003513'
S'D000647'
tp1475
atRp1476
sS'10721819'
p1477
g3
((lp1478
(S'D007545'
S'D001919'
tp1479
a(S'D001971'
S'D007022'
tp1480
a(S'D004294'
S'D001919'
tp1481
a(S'D007545'
S'D006332'
tp1482
a(S'D001971'
S'D013610'
tp1483
atRp1484
sS'19729346'
p1485
g3
((lp1486
(S'D010098'
S'D008569'
tp1487
a(S'D010098'
S'D003072'
tp1488
atRp1489
sS'18631865'
p1490
g3
((lp1491
(S'D020123'
S'D011507'
tp1492
atRp1493
sS'20588063'
p1494
g3
((lp1495
(S'D011692'
S'D011507'
tp1496
a(S'D011692'
S'D009401'
tp1497
atRp1498
sS'10520387'
p1499
g3
((lp1500
(S'D015742'
S'D007022'
tp1501
a(S'D004809'
S'D013610'
tp1502
a(S'D015742'
S'D013610'
tp1503
atRp1504
sS'7083920'
p1505
g3
((lp1506
(S'D000638'
S'D006327'
tp1507
atRp1508
sS'9869257'
p1509
g3
((lp1510
(S'C098725'
S'D000647'
tp1511
a(S'D012601'
S'D000647'
tp1512
atRp1513
sS'10091617'
p1514
g3
((lp1515
(S'D012642'
S'D007024'
tp1516
atRp1517
sS'12684739'
p1518
g3
((lp1519
(S'D020888'
S'D005128'
tp1520
atRp1521
sS'16403073'
p1522
g3
((lp1523
(S'D007654'
S'D008133'
tp1524
a(S'D007654'
S'D016171'
tp1525
atRp1526
sS'2549018'
p1527
g3
((lp1528
(S'D005473'
S'D017109'
tp1529
atRp1530
sS'18754075'
p1531
g3
((lp1532
(S'D019386'
S'D058186'
tp1533
a(S'D019386'
S'D011507'
tp1534
atRp1535
sS'9721172'
p1536
g3
((lp1537
(S'D007052'
S'D002779'
tp1538
a(S'D007052'
S'D013262'
tp1539
atRp1540
sS'12063090'
p1541
g3
((lp1542
(S'D009020'
S'D003248'
tp1543
atRp1544
sS'3358181'
p1545
g3
((lp1546
(S'D012312'
S'D014693'
tp1547
atRp1548
sS'9495837'
p1549
g3
((lp1550
(S'D012601'
S'D000647'
tp1551
a(S'D004025'
S'D000647'
tp1552
atRp1553
sS'15338796'
p1554
g3
((lp1555
(S'D000420'
S'D014202'
tp1556
atRp1557
sS'2894766'
p1558
g3
((lp1559
(S'D012460'
S'D011014'
tp1560
a(S'D012460'
S'D010996'
tp1561
a(S'D012460'
S'D002305'
tp1562
a(S'D012460'
S'D008180'
tp1563
atRp1564
sS'9249847'
p1565
g3
((lp1566
(S'D014700'
S'D013611'
tp1567
atRp1568
sS'18023325'
p1569
g3
((lp1570
(S'D004221'
S'D001259'
tp1571
a(S'D004221'
S'D010292'
tp1572
a(S'D004221'
S'D011782'
tp1573
a(S'D004221'
S'D010146'
tp1574
a(S'D004221'
S'D014826'
tp1575
a(S'D004221'
S'D010523'
tp1576
atRp1577
sS'20098969'
p1578
g3
((lp1579
(S'D008694'
S'D003731'
tp1580
atRp1581
sS'3015567'
p1582
g3
((lp1583
(S'D009599'
S'D007022'
tp1584
atRp1585
sS'7881871'
p1586
g3
((lp1587
(S'D011692'
S'D011507'
tp1588
a(S'D011692'
S'D007674'
tp1589
atRp1590
sS'1527456'
p1591
g3
((lp1592
(S'D008012'
S'D014839'
tp1593
a(S'D008012'
S'D014717'
tp1594
atRp1595
sS'12907309'
p1596
g3
((lp1597
(S'D008694'
S'D005334'
tp1598
atRp1599
sS'9351491'
p1600
g3
((lp1601
(S'D018967'
S'D010302'
tp1602
a(S'D006220'
S'D010302'
tp1603
atRp1604
sS'11773892'
p1605
g3
((lp1606
(S'D016572'
S'D007674'
tp1607
a(S'D016559'
S'D007674'
tp1608
atRp1609
sS'8669433'
p1610
g3
((lp1611
(S'D010615'
S'D007676'
tp1612
atRp1613
sS'11745184'
p1614
g3
((lp1615
(S'D002945'
S'D009422'
tp1616
a(S'D002945'
S'D006311'
tp1617
a(S'D002945'
S'D007674'
tp1618
atRp1619
sS'20722491'
p1620
g3
((lp1621
(S'C110904'
S'D009325'
tp1622
a(S'C110904'
S'D060831'
tp1623
a(S'C110904'
S'D013280'
tp1624
a(S'C110904'
S'D003967'
tp1625
a(S'C110904'
S'D014839'
tp1626
atRp1627
sS'1833784'
p1628
g3
((lp1629
(S'D009538'
S'D006948'
tp1630
atRp1631
sS'17242861'
p1632
g3
((lp1633
(S'D010862'
S'D004833'
tp1634
atRp1635
sS'18560792'
p1636
g3
((lp1637
(S'D010479'
S'D001022'
tp1638
a(S'D010479'
S'D008944'
tp1639
atRp1640
sS'12639165'
p1641
g3
((lp1642
(S'D013988'
S'D002779'
tp1643
a(S'D013988'
S'D007565'
tp1644
a(S'D013988'
S'D056486'
tp1645
atRp1646
sS'354896'
p1647
g3
((lp1648
(S'D008012'
S'D006323'
tp1649
atRp1650
sS'12653683'
p1651
g3
((lp1652
(S'D011692'
S'D011507'
tp1653
a(S'D011692'
S'D009404'
tp1654
atRp1655
sS'1639466'
p1656
g3
((lp1657
(S'D009568'
S'D009400'
tp1658
a(S'D009568'
S'D000419'
tp1659
atRp1660
sS'2234245'
p1661
g3
((lp1662
(S'D003676'
S'D012164'
tp1663
a(S'D003676'
S'D006319'
tp1664
a(S'D003676'
S'D014786'
tp1665
atRp1666
sS'6229975'
p1667
g3
((lp1668
(S'D013999'
S'D006332'
tp1669
atRp1670
sS'1919871'
p1671
g3
((lp1672
(S'D000082'
S'D007681'
tp1673
a(S'D001241'
S'D007681'
tp1674
atRp1675
sS'3564823'
p1676
g3
((lp1677
(S'D013874'
S'D013035'
tp1678
atRp1679
sS'11897407'
p1680
g3
((lp1681
(S'D007545'
S'D009203'
tp1682
atRp1683
sS'16337777'
p1684
g3
((lp1685
(S'D010862'
S'D004833'
tp1686
atRp1687
sS'19269743'
p1688
g3
((lp1689
(S'D002211'
S'D010146'
tp1690
atRp1691
sS'3076126'
p1692
g3
((lp1693
(S'D008148'
S'D009212'
tp1694
a(S'D009525'
S'D009135'
tp1695
a(S'D008148'
S'D051437'
tp1696
a(S'D016572'
S'D009135'
tp1697
a(S'D015248'
S'D009135'
tp1698
atRp1699
sS'10737864'
p1700
g3
((lp1701
(S'D003000'
S'D001919'
tp1702
atRp1703
sS'2375138'
p1704
g3
((lp1705
(S'D008874'
S'D012140'
tp1706
a(S'D008874'
S'D006323'
tp1707
atRp1708
sS'7890216'
p1709
g3
((lp1710
(S'D015282'
S'D042882'
tp1711
atRp1712
sS'1009330'
p1713
g3
((lp1714
(S'D011206'
S'D003556'
tp1715
a(S'C010882'
S'D003556'
tp1716
a(S'D007612'
S'D003556'
tp1717
a(S'D003091'
S'D003556'
tp1718
atRp1719
sS'12084448'
p1720
g3
((lp1721
(S'D007069'
S'D009207'
tp1722
a(S'D007069'
S'D001927'
tp1723
atRp1724
sS'2632720'
p1725
g3
((lp1726
(S'D007654'
S'D006973'
tp1727
atRp1728
sS'9727773'
p1729
g3
((lp1730
(S'D005277'
S'D006976'
tp1731
a(S'D001067'
S'D006976'
tp1732
atRp1733
sS'2445283'
p1734
g3
((lp1735
(S'D012254'
S'D000740'
tp1736
atRp1737
sS'2670794'
p1738
g3
((lp1739
(S'D014148'
S'D004211'
tp1740
atRp1741
sS'18004067'
p1742
g3
((lp1743
(S'D000082'
S'D056486'
tp1744
a(S'D000082'
S'D017093'
tp1745
atRp1746
sS'18020536'
p1747
g3
((lp1748
(S'D001569'
S'D007319'
tp1749
a(S'D001569'
S'D003866'
tp1750
a(S'D001569'
S'D004244'
tp1751
a(S'D001569'
S'D005221'
tp1752
atRp1753
sS'2611118'
p1754
g3
((lp1755
(S'D004008'
S'D056486'
tp1756
atRp1757
sS'11206082'
p1758
g3
((lp1759
(S'D010433'
S'D012640'
tp1760
a(S'D010852'
S'D012640'
tp1761
a(S'C036150'
S'D012640'
tp1762
atRp1763
sS'869641'
p1764
g3
((lp1765
(S'D009638'
S'D001919'
tp1766
atRp1767
sS'15458908'
p1768
g3
((lp1769
(S'D020849'
S'D054556'
tp1770
atRp1771
sS'6209318'
p1772
g3
((lp1773
(S'D008801'
S'D014202'
tp1774
a(S'D008801'
S'D012817'
tp1775
atRp1776
sS'6518066'
p1777
g3
((lp1778
(S'D008094'
S'D004437'
tp1779
atRp1780
sS'8558192'
p1781
g3
((lp1782
(S'C030852'
S'D000380'
tp1783
a(S'C030852'
S'D010523'
tp1784
atRp1785
sS'809711'
p1786
g3
((lp1787
(S'D005996'
S'D007022'
tp1788
atRp1789
sS'17111419'
p1790
g3
((lp1791
(S'C102006'
S'D006996'
tp1792
atRp1793
sS'11198499'
p1794
g3
((lp1795
(S'C023754'
S'D007022'
tp1796
a(S'D017706'
S'D007022'
tp1797
atRp1798
sS'3997294'
p1799
g3
((lp1800
(S'D000638'
S'D010490'
tp1801
a(S'D000638'
S'D010996'
tp1802
a(S'D000638'
S'D009468'
tp1803
a(S'D000638'
S'D011014'
tp1804
atRp1805
sS'3828020'
p1806
g3
((lp1807
(S'D010665'
S'D002544'
tp1808
a(S'D010665'
S'D001523'
tp1809
a(S'D010665'
S'D002543'
tp1810
a(S'D010665'
S'D012640'
tp1811
atRp1812
sS'11569530'
p1813
g3
((lp1814
(S'D020117'
S'D016171'
tp1815
a(S'D016593'
S'D016171'
tp1816
a(S'C010637'
S'D016171'
tp1817
atRp1818
sS'6773726'
p1819
g3
((lp1820
(S'D005996'
S'D007022'
tp1821
atRp1822
sS'11334364'
p1823
g3
((lp1824
(S'D000082'
S'D009336'
tp1825
a(S'D000638'
S'D009336'
tp1826
a(S'D000082'
S'D007674'
tp1827
a(S'D004317'
S'D066126'
tp1828
a(S'D000638'
S'D008171'
tp1829
a(S'D004317'
S'D009336'
tp1830
atRp1831
sS'8421099'
p1832
g3
((lp1833
(S'D015282'
S'D041881'
tp1834
a(S'D015282'
S'D042882'
tp1835
atRp1836
sS'11642480'
p1837
g3
((lp1838
(S'D015283'
S'D004409'
tp1839
atRp1840
sS'9401499'
p1841
g3
((lp1842
(S'D013988'
S'D000380'
tp1843
a(S'D013988'
S'D000741'
tp1844
atRp1845
sS'14765563'
p1846
g3
((lp1847
(S'D011803'
S'D003221'
tp1848
a(S'D011803'
S'D012640'
tp1849
a(S'D011803'
S'D003128'
tp1850
atRp1851
sS'16005948'
p1852
g3
((lp1853
(S'D003042'
S'D012640'
tp1854
atRp1855
sS'18752389'
p1856
g3
((lp1857
(S'C492458'
S'D017114'
tp1858
a(S'C492458'
S'D056486'
tp1859
atRp1860
sS'4027862'
p1861
g3
((lp1862
(S'D003891'
S'D003693'
tp1863
atRp1864
sS'3693336'
p1865
g3
((lp1866
(S'D014229'
S'D001714'
tp1867
atRp1868
sS'9672936'
p1869
g3
((lp1870
(S'D008614'
S'D012640'
tp1871
atRp1872
sS'15632880'
p1873
g3
((lp1874
(S'D013148'
S'D006947'
tp1875
a(S'D013148'
S'D051437'
tp1876
atRp1877
sS'7504976'
p1878
g3
((lp1879
(S'D002231'
S'D002779'
tp1880
a(S'D002231'
S'D056486'
tp1881
atRp1882
sS'20619828'
p1883
g3
((lp1884
(S'D002997'
S'D008569'
tp1885
a(S'D002997'
S'D001008'
tp1886
a(S'D002997'
S'D060845'
tp1887
atRp1888
sS'7352670'
p1889
g3
((lp1890
(S'D006221'
S'D007022'
tp1891
a(S'D009599'
S'D007022'
tp1892
atRp1893
sS'8682684'
p1894
g3
((lp1895
(S'D000082'
S'D007022'
tp1896
atRp1897
sS'18768591'
p1898
g3
((lp1899
(S'D004317'
S'D001201'
tp1900
a(S'D004317'
S'D009404'
tp1901
a(S'D004317'
S'D006949'
tp1902
a(S'D004317'
S'D011507'
tp1903
a(S'D004317'
S'D034141'
tp1904
atRp1905
sS'11263551'
p1906
g3
((lp1907
(S'D016559'
S'D001855'
tp1908
a(S'D016572'
S'D001855'
tp1909
a(S'D016559'
S'D010146'
tp1910
a(S'D016559'
S'D004487'
tp1911
a(S'D016572'
S'D004487'
tp1912
a(S'D016572'
S'D010146'
tp1913
atRp1914
sS'2578334'
p1915
g3
((lp1916
(S'D001564'
S'D011230'
tp1917
a(S'D008770'
S'D011230'
tp1918
a(S'D019813'
S'D011230'
tp1919
a(S'D001374'
S'D011230'
tp1920
a(S'D002251'
S'D011230'
tp1921
a(S'D015073'
S'D011230'
tp1922
atRp1923
sS'20633755'
p1924
g3
((lp1925
(S'D009943'
S'D001049'
tp1926
a(S'D013390'
S'D001049'
tp1927
atRp1928
sS'347884'
p1929
g3
((lp1930
(S'D006220'
S'D001480'
tp1931
a(S'C006820'
S'D001480'
tp1932
atRp1933
sS'8953972'
p1934
g3
((lp1935
(S'D004837'
S'D006323'
tp1936
a(S'D004837'
S'D013345'
tp1937
atRp1938
sS'1601297'
p1939
g3
((lp1940
(S'D003042'
S'D002037'
tp1941
a(S'D003042'
S'D009203'
tp1942
atRp1943
sS'9812111'
p1944
g3
((lp1945
(S'D006220'
S'D001480'
tp1946
atRp1947
sS'891050'
p1948
g3
((lp1949
(S'D003276'
S'D006463'
tp1950
atRp1951
sS'18162529'
p1952
g3
((lp1953
(S'D013469'
S'D006966'
tp1954
atRp1955
sS'3070035'
p1956
g3
((lp1957
(S'D002216'
S'D058186'
tp1958
atRp1959
sS'2440413'
p1960
g3
((lp1961
(S'D015097'
S'D012640'
tp1962
a(S'D013331'
S'D012640'
tp1963
a(S'D010852'
S'D012640'
tp1964
a(S'C034818'
S'D012640'
tp1965
a(S'D010433'
S'D012640'
tp1966
a(S'D001640'
S'D012640'
tp1967
atRp1968
sS'3192036'
p1969
g3
((lp1970
(S'D003520'
S'D011655'
tp1971
a(S'D008727'
S'D011655'
tp1972
a(S'D005047'
S'D011655'
tp1973
atRp1974
sS'15120741'
p1975
g3
((lp1976
(S'D010862'
S'D013226'
tp1977
a(S'D010862'
S'D012640'
tp1978
atRp1979
sS'1378968'
p1980
g3
((lp1981
(S'D008094'
S'D006973'
tp1982
a(S'D008094'
S'D011507'
tp1983
a(S'D008094'
S'D007676'
tp1984
atRp1985
sS'19957053'
p1986
g3
((lp1987
(S'D005283'
S'D007022'
tp1988
a(S'D015742'
S'D007022'
tp1989
a(S'D015742'
S'D002303'
tp1990
a(S'D005283'
S'D002303'
tp1991
a(S'D010656'
S'D002534'
tp1992
atRp1993
sS'10669626'
p1994
g3
((lp1995
(S'D014859'
S'D061205'
tp1996
atRp1997
sS'150790'
p1998
g3
((lp1999
(S'D007538'
S'D002653'
tp2000
a(S'D007538'
S'D006948'
tp2001
atRp2002
sS'15009014'
p2003
g3
((lp2004
(S'D002211'
S'D006940'
tp2005
a(S'D002211'
S'D002561'
tp2006
atRp2007
sS'14657095'
p2008
g3
((lp2009
(S'D000666'
S'D006333'
tp2010
a(S'D000666'
S'D002311'
tp2011
atRp2012
sS'6727060'
p2013
g3
((lp2014
(S'D008787'
S'D004409'
tp2015
atRp2016
sS'15863244'
p2017
g3
((lp2018
(S'D010894'
S'D009139'
tp2019
a(S'D010894'
S'D005317'
tp2020
a(S'C106876'
S'D005317'
tp2021
atRp2022
sS'20067456'
p2023
g3
((lp2024
(S'D017367'
S'D007172'
tp2025
atRp2026
sS'12523465'
p2027
g3
((lp2028
(S'C022189'
S'D006212'
tp2029
atRp2030
sS'1428568'
p2031
g3
((lp2032
(S'D013999'
S'D003866'
tp2033
atRp2034
sS'11426838'
p2035
g3
((lp2036
(S'D003042'
S'D012640'
tp2037
atRp2038
sS'10739826'
p2039
g3
((lp2040
(S'D003276'
S'D054556'
tp2041
atRp2042
sS'18544179'
p2043
g3
((lp2044
(S'D005283'
S'D007022'
tp2045
a(S'D005283'
S'D020250'
tp2046
a(S'D005283'
S'D001919'
tp2047
a(S'D005283'
S'D012131'
tp2048
atRp2049
sS'1987816'
p2050
g3
((lp2051
(S'D008094'
S'D011141'
tp2052
atRp2053
sS'9293063'
p2054
g3
((lp2055
(S'D003613'
S'D001650'
tp2056
a(S'D003613'
S'D006222'
tp2057
atRp2058
sS'6387529'
p2059
g3
((lp2060
(S'D003975'
S'D008569'
tp2061
a(S'D011433'
S'D008569'
tp2062
atRp2063
sS'19657887'
p2064
g3
((lp2065
(S'D000431'
S'D005483'
tp2066
a(S'D003484'
S'D005483'
tp2067
a(S'D000431'
S'D004417'
tp2068
a(S'D003484'
S'D004417'
tp2069
a(S'D000431'
S'D007022'
tp2070
a(S'D000431'
S'D013610'
tp2071
a(S'D003484'
S'D007022'
tp2072
a(S'D003484'
S'D013610'
tp2073
atRp2074
sS'9698967'
p2075
g3
((lp2076
(S'D004837'
S'D006973'
tp2077
a(S'D008619'
S'D006973'
tp2078
a(S'D004837'
S'D001281'
tp2079
a(S'D008619'
S'D001281'
tp2080
atRp2081
sS'19387625'
p2082
g3
((lp2083
(S'D002211'
S'D006930'
tp2084
atRp2085
sS'16167916'
p2086
g3
((lp2087
(S'D020849'
S'D054556'
tp2088
atRp2089
sS'1835291'
p2090
g3
((lp2091
(S'D013806'
S'D005767'
tp2092
a(S'D013806'
S'D002318'
tp2093
atRp2094
sS'2265898'
p2095
g3
((lp2096
(S'C009265'
S'D004827'
tp2097
atRp2098
sS'6634932'
p2099
g3
((lp2100
(S'D010042'
S'D017180'
tp2101
atRp2102
sS'9522143'
p2103
g3
((lp2104
(S'D011318'
S'D034381'
tp2105
a(S'D002045'
S'D034381'
tp2106
atRp2107
sS'8423889'
p2108
g3
((lp2109
(S'D005473'
S'D009069'
tp2110
atRp2111
sS'14698717'
p2112
g3
((lp2113
(S'D010672'
S'D011605'
tp2114
atRp2115
sS'12536034'
p2116
g3
((lp2117
(S'D002220'
S'D004832'
tp2118
a(S'D020888'
S'D004832'
tp2119
atRp2120
sS'19356307'
p2121
g3
((lp2122
(S'D012601'
S'D008569'
tp2123
atRp2124
sS'19803309'
p2125
g3
((lp2126
(S'D013390'
S'D014313'
tp2127
atRp2128
sS'17020434'
p2129
g3
((lp2130
(S'C426686'
S'D056486'
tp2131
atRp2132
sS'6692345'
p2133
g3
((lp2134
(S'D005200'
S'D013274'
tp2135
a(S'D005200'
S'D001749'
tp2136
atRp2137
sS'11419773'
p2138
g3
((lp2139
(S'D002110'
S'D014693'
tp2140
atRp2141
sS'2312209'
p2142
g3
((lp2143
(S'D007548'
S'D009203'
tp2144
atRp2145
sS'9754849'
p2146
g3
((lp2147
(S'D003042'
S'D006948'
tp2148
a(S'D008691'
S'D002819'
tp2149
a(S'D003042'
S'D002819'
tp2150
atRp2151
sS'12589964'
p2152
g3
((lp2153
(S'D004317'
S'D009202'
tp2154
atRp2155
sS'2951327'
p2156
g3
((lp2157
(S'D005996'
S'D007022'
tp2158
a(S'D006830'
S'D007022'
tp2159
atRp2160
sS'3985451'
p2161
g3
((lp2162
(S'D014859'
S'D009408'
tp2163
a(S'D014859'
S'D009135'
tp2164
a(S'D014859'
S'D006406'
tp2165
a(S'D014859'
S'D020428'
tp2166
atRp2167
sS'12921865'
p2168
g3
((lp2169
(S'D003042'
S'D012640'
tp2170
atRp2171
sS'17919553'
p2172
g3
((lp2173
(S'C106791'
S'D056486'
tp2174
atRp2175
sS'8864707'
p2176
g3
((lp2177
(S'D010672'
S'D062787'
tp2178
atRp2179
sS'15145918'
p2180
g3
((lp2181
(S'C032302'
S'D007022'
tp2182
a(S'D008750'
S'D007022'
tp2183
atRp2184
sS'8092427'
p2185
g3
((lp2186
(S'D000658'
S'D000707'
tp2187
a(S'D000658'
S'D004342'
tp2188
a(S'D000658'
S'D000799'
tp2189
atRp2190
sS'18503483'
p2191
g3
((lp2192
(S'D016559'
S'D020968'
tp2193
atRp2194
sS'9766615'
p2195
g3
((lp2196
(S'D003024'
S'D000380'
tp2197
atRp2198
sS'88336'
p2199
g3
((lp2200
(S'D002719'
S'D003128'
tp2201
a(S'D002719'
S'D053608'
tp2202
a(S'D009567'
S'D062787'
tp2203
a(S'D009567'
S'D003128'
tp2204
atRp2205
sS'322550'
p2206
g3
((lp2207
(S'D009599'
S'D007022'
tp2208
atRp2209
sS'19346865'
p2210
g3
((lp2211
(S'D008795'
S'D001927'
tp2212
atRp2213
sS'11961407'
p2214
g3
((lp2215
(S'D011692'
S'D011507'
tp2216
a(S'D011692'
S'D009401'
tp2217
atRp2218
sS'15899738'
p2219
g3
((lp2220
(S'D003401'
S'D001281'
tp2221
atRp2222
sS'12090760'
p2223
g3
((lp2224
(S'D015215'
S'D000740'
tp2225
atRp2226
sS'9862868'
p2227
g3
((lp2228
(S'D004997'
S'D002780'
tp2229
atRp2230
sS'6386793'
p2231
g3
((lp2232
(S'D000639'
S'D014987'
tp2233
a(S'D000639'
S'D014786'
tp2234
atRp2235
sS'6538499'
p2236
g3
((lp2237
(S'D004317'
S'D009202'
tp2238
atRp2239
sS'1468485'
p2240
g3
((lp2241
(S'D003520'
S'D006417'
tp2242
a(S'D003520'
S'D003556'
tp2243
a(S'D003520'
S'D006470'
tp2244
atRp2245
sS'17344566'
p2246
g3
((lp2247
(S'D019821'
S'D003161'
tp2248
atRp2249
sS'2385256'
p2250
g3
((lp2251
(S'D008274'
S'D009157'
tp2252
atRp2253
sS'12627929'
p2254
g3
((lp2255
(S'D013792'
S'D054556'
tp2256
a(S'C067311'
S'D054556'
tp2257
atRp2258
sS'2696505'
p2259
g3
((lp2260
(S'D009599'
S'D016534'
tp2261
a(S'D007741'
S'D007022'
tp2262
a(S'D009599'
S'D007022'
tp2263
atRp2264
sS'15233872'
p2265
g3
((lp2266
(S'D007545'
S'D009203'
tp2267
atRp2268
sS'11379838'
p2269
g3
((lp2270
(S'D000928'
S'D001714'
tp2271
a(S'D017367'
S'D001714'
tp2272
atRp2273
sS'1867351'
p2274
g3
((lp2275
(S'D015767'
S'D001008'
tp2276
a(S'D015767'
S'D011605'
tp2277
a(S'D015767'
S'D012893'
tp2278
a(S'D015767'
S'D012640'
tp2279
atRp2280
sS'17615423'
p2281
g3
((lp2282
(S'D000638'
S'D058186'
tp2283
a(S'C413408'
S'D012206'
tp2284
a(S'C413408'
S'D058186'
tp2285
a(S'D019821'
S'D012206'
tp2286
a(S'D019821'
S'D058186'
tp2287
a(S'D000638'
S'D012206'
tp2288
atRp2289
sS'10526274'
p2290
g3
((lp2291
(S'C056507'
S'D009503'
tp2292
a(S'C056507'
S'D020258'
tp2293
a(S'C030852'
S'D013921'
tp2294
a(S'C030852'
S'D009503'
tp2295
a(S'C030852'
S'D020258'
tp2296
a(S'C056507'
S'D013921'
tp2297
atRp2298
sS'1616457'
p2299
g3
((lp2300
(S'D010424'
S'D000647'
tp2301
atRp2302
sS'3107448'
p2303
g3
((lp2304
(S'D005905'
S'D056486'
tp2305
atRp2306
sS'10706004'
p2307
g3
((lp2308
(S'D009569'
S'D006973'
tp2309
atRp2310
sS'18996674'
p2311
g3
((lp2312
(S'D003042'
S'D011317'
tp2313
atRp2314
sS'19300402'
p2315
g3
((lp2316
(S'D014750'
S'D006930'
tp2317
a(S'D013311'
S'D006930'
tp2318
a(S'D013311'
S'D003929'
tp2319
a(S'D014750'
S'D010523'
tp2320
atRp2321
sS'11587867'
p2322
g3
((lp2323
(S'D014750'
S'D009410'
tp2324
a(S'D014750'
S'D003711'
tp2325
a(S'D014750'
S'D020258'
tp2326
atRp2327
sS'16904497'
p2328
g3
((lp2329
(S'C030262'
S'D011128'
tp2330
a(S'D002045'
S'D011128'
tp2331
atRp2332
sS'19631624'
p2333
g3
((lp2334
(S'D018817'
S'D007859'
tp2335
a(S'D018817'
S'D008569'
tp2336
atRp2337
sS'11279304'
p2338
g3
((lp2339
(S'D003630'
S'D006333'
tp2340
atRp2341
sS'17241784'
p2342
g3
((lp2343
(S'D019821'
S'D009336'
tp2344
a(S'D019821'
S'D009135'
tp2345
atRp2346
sS'18343374'
p2347
g3
((lp2348
(S'D002996'
S'D012170'
tp2349
a(S'D002996'
S'D014786'
tp2350
atRp2351
sS'17608141'
p2352
g3
((lp2353
(S'D008694'
S'D005334'
tp2354
atRp2355
sS'3780846'
p2356
g3
((lp2357
(S'D009020'
S'D009127'
tp2358
a(S'D009020'
S'D018476'
tp2359
a(S'D009020'
S'D006948'
tp2360
a(S'D006220'
S'D009127'
tp2361
atRp2362
sS'18464113'
p2363
g3
((lp2364
(S'D006514'
S'D006509'
tp2365
atRp2366
sS'20520283'
p2367
g3
((lp2368
(S'D006220'
S'D001480'
tp2369
a(S'C522667'
S'D001480'
tp2370
atRp2371
sS'12596116'
p2372
g3
((lp2373
(S'D015282'
S'D006976'
tp2374
atRp2375
sS'3714122'
p2376
g3
((lp2377
(S'C005238'
S'D013118'
tp2378
atRp2379
sS'8302922'
p2380
g3
((lp2381
(S'D000527'
S'D007022'
tp2382
a(S'D014294'
S'D007022'
tp2383
atRp2384
sS'4812392'
p2385
g3
((lp2386
(S'D001379'
S'D002779'
tp2387
a(S'D001379'
S'D005355'
tp2388
atRp2389
sS'6286738'
p2390
g3
((lp2391
(S'D002762'
S'D006934'
tp2392
a(S'D002762'
S'D054559'
tp2393
atRp2394
sS'2559236'
p2395
g3
((lp2396
(S'D004317'
S'D009401'
tp2397
a(S'D004317'
S'D000419'
tp2398
atRp2399
sS'2071257'
p2400
g3
((lp2401
(S'D012601'
S'D008569'
tp2402
atRp2403
sS'2425813'
p2404
g3
((lp2405
(S'D011239'
S'D006529'
tp2406
a(S'D011239'
S'D009133'
tp2407
atRp2408
sS'19211690'
p2409
g3
((lp2410
(S'D017673'
S'D007674'
tp2411
atRp2412
sS'9931093'
p2413
g3
((lp2414
(S'D016559'
S'D006973'
tp2415
atRp2416
sS'16181582'
p2417
g3
((lp2418
(S'D014635'
S'D001927'
tp2419
atRp2420
sS'19889778'
p2421
g3
((lp2422
(S'D006513'
S'D006509'
tp2423
a(S'D006514'
S'D006509'
tp2424
atRp2425
sS'20470218'
p2426
g3
((lp2427
(S'D008727'
S'D002493'
tp2428
atRp2429
sS'7988234'
p2430
g3
((lp2431
(S'D008790'
S'D000799'
tp2432
a(S'D017706'
S'D000799'
tp2433
atRp2434
sS'20080983'
p2435
g3
((lp2436
(S'D003042'
S'D012893'
tp2437
atRp2438
sS'17439425'
p2439
g3
((lp2440
(S'D003907'
S'D006973'
tp2441
a(S'D003907'
S'D015431'
tp2442
atRp2443
sS'983936'
p2444
g3
((lp2445
(S'D004837'
S'D009202'
tp2446
atRp2447
sS'11532387'
p2448
g3
((lp2449
(S'D018967'
S'D001480'
tp2450
a(S'D018967'
S'D013375'
tp2451
atRp2452
sS'1664218'
p2453
g3
((lp2454
(S'C042315'
S'D012640'
tp2455
a(S'C042315'
S'D014839'
tp2456
a(S'C042315'
S'D007239'
tp2457
a(S'C042315'
S'D009325'
tp2458
a(S'C042315'
S'D009503'
tp2459
a(S'C042315'
S'D010689'
tp2460
atRp2461
sS'9625142'
p2462
g3
((lp2463
(S'D002443'
S'D000744'
tp2464
a(S'D002443'
S'D056486'
tp2465
atRp2466
sS'8638206'
p2467
g3
((lp2468
(S'D014673'
S'D010243'
tp2469
a(S'D001279'
S'D010243'
tp2470
atRp2471
sS'11166519'
p2472
g3
((lp2473
(S'D003042'
S'D012640'
tp2474
atRp2475
sS'7265370'
p2476
g3
((lp2477
(S'D014223'
S'D053040'
tp2478
atRp2479
sS'7449470'
p2480
g3
((lp2481
(S'D004317'
S'D009202'
tp2482
atRp2483
sS'20667451'
p2484
g3
((lp2485
(S'D002220'
S'D003072'
tp2486
a(S'D010634'
S'D003072'
tp2487
atRp2488
sS'6503301'
p2489
g3
((lp2490
(S'D003606'
S'D006504'
tp2491
atRp2492
sS'1967484'
p2493
g3
((lp2494
(S'D013469'
S'D004421'
tp2495
atRp2496
sS'19581773'
p2497
g3
((lp2498
(S'C417083'
S'D015835'
tp2499
a(S'C417083'
S'D009157'
tp2500
a(S'D012254'
S'D001763'
tp2501
a(S'D012254'
S'D015835'
tp2502
a(S'D012254'
S'D009157'
tp2503
a(S'C417083'
S'D001763'
tp2504
atRp2505
sS'11752354'
p2506
g3
((lp2507
(S'D003276'
S'D009203'
tp2508
atRp2509
sS'18221780'
p2510
g3
((lp2511
(S'D002211'
S'D006930'
tp2512
atRp2513
sS'18442015'
p2514
g3
((lp2515
(S'D002784'
S'D014456'
tp2516
a(S'D002784'
S'D050197'
tp2517
a(S'D004872'
S'D050197'
tp2518
a(S'D004872'
S'D014456'
tp2519
a(S'D004872'
S'D006471'
tp2520
a(S'D002784'
S'D006471'
tp2521
atRp2522
sS'3750012'
p2523
g3
((lp2524
(S'D010396'
S'D009157'
tp2525
a(S'D002738'
S'D009157'
tp2526
atRp2527
sS'16867021'
p2528
g3
((lp2529
(S'D006220'
S'D002375'
tp2530
a(S'D000661'
S'D006948'
tp2531
a(S'C052075'
S'D002375'
tp2532
atRp2533
sS'2950248'
p2534
g3
((lp2535
(S'D004176'
S'D000787'
tp2536
atRp2537
sS'10704919'
p2538
g3
((lp2539
(S'D013629'
S'D006461'
tp2540
a(S'D013629'
S'D000743'
tp2541
atRp2542
sag2
(g3
tRp2543
S'11208990'
p2544
g3
((lp2545
(S'D004317'
S'D009404'
tp2546
a(S'D004317'
S'D011507'
tp2547
atRp2548
sS'9636837'
p2549
g3
((lp2550
(S'D002945'
S'D010523'
tp2551
a(S'D016190'
S'D010523'
tp2552
atRp2553
sS'1445986'
p2554
g3
((lp2555
(S'D015313'
S'D000743'
tp2556
atRp2557
sS'2435991'
p2558
g3
((lp2559
(S'D004071'
S'D001145'
tp2560
a(S'D004837'
S'D001145'
tp2561
atRp2562
sS'17344330'
p2563
g3
((lp2564
(S'D008691'
S'D008133'
tp2565
a(S'D008691'
S'D013575'
tp2566
atRp2567
sS'2528969'
p2568
g3
((lp2569
(S'D015215'
S'D006261'
tp2570
a(S'D015215'
S'D005221'
tp2571
a(S'D015215'
S'D009325'
tp2572
atRp2573
sS'14982270'
p2574
g3
((lp2575
(S'D008713'
S'D041781'
tp2576
a(S'D008713'
S'D006932'
tp2577
a(S'D008713'
S'D011537'
tp2578
atRp2579
sS'15075188'
p2580
g3
((lp2581
(S'D011692'
S'D011507'
tp2582
a(S'D011692'
S'D009404'
tp2583
a(S'D011692'
S'D001201'
tp2584
a(S'D011692'
S'D034141'
tp2585
atRp2586
sS'6127992'
p2587
g3
((lp2588
(S'D014700'
S'D007022'
tp2589
a(S'D000319'
S'D001919'
tp2590
a(S'D000319'
S'D006333'
tp2591
a(S'D014700'
S'D006333'
tp2592
a(S'D000319'
S'D007022'
tp2593
a(S'D014700'
S'D001919'
tp2594
atRp2595
sS'7619765'
p2596
g3
((lp2597
(S'D005047'
S'D009203'
tp2598
atRp2599
sS'19289093'
p2600
g3
((lp2601
(S'D002809'
S'D007022'
tp2602
atRp2603
sS'8480959'
p2604
g3
((lp2605
(S'D008148'
S'D009135'
tp2606
atRp2607
sS'8251368'
p2608
g3
((lp2609
(S'D017311'
S'D013684'
tp2610
a(S'D009543'
S'D013684'
tp2611
atRp2612
sS'7650771'
p2613
g3
((lp2614
(S'D004456'
S'D018908'
tp2615
atRp2616
sS'3115150'
p2617
g3
((lp2618
(S'D015760'
S'D009127'
tp2619
atRp2620
sS'871943'
p2621
g3
((lp2622
(S'D013390'
S'D001049'
tp2623
atRp2624
sS'10225068'
p2625
g3
((lp2626
(S'D008012'
S'D011128'
tp2627
atRp2628
sS'17019386'
p2629
g3
((lp2630
(S'D008353'
S'D019586'
tp2631
atRp2632
sS'12907924'
p2633
g3
((lp2634
(S'D008774'
S'D009771'
tp2635
atRp2636
sS'7843916'
p2637
g3
((lp2638
(S'D003907'
S'D009798'
tp2639
atRp2640
sS'1545575'
p2641
g3
((lp2642
(S'D003520'
S'D003556'
tp2643
a(S'D003520'
S'D006470'
tp2644
atRp2645
sS'7059267'
p2646
g3
((lp2647
(S'D002747'
S'D009901'
tp2648
atRp2649
sS'11838826'
p2650
g3
((lp2651
(S'D018967'
S'D006966'
tp2652
atRp2653
sS'19917396'
p2654
g3
((lp2655
(S'D016559'
S'D006332'
tp2656
atRp2657
sS'14736955'
p2658
g3
((lp2659
(S'D004317'
S'D009401'
tp2660
atRp2661
sS'8441146'
p2662
g3
((lp2663
(S'D010396'
S'D000741'
tp2664
a(S'D006046'
S'D000741'
tp2665
atRp2666
sS'2557556'
p2667
g3
((lp2668
(S'D015232'
S'D006930'
tp2669
a(S'D015124'
S'D006930'
tp2670
atRp2671
sS'9209318'
p2672
g3
((lp2673
(S'D015215'
S'D009190'
tp2674
a(S'D015215'
S'D013921'
tp2675
a(S'D015215'
S'D000748'
tp2676
atRp2677
sS'7707116'
p2678
g3
((lp2679
(S'D015474'
S'D013921'
tp2680
a(S'D015474'
S'D006934'
tp2681
a(S'D015474'
S'D005076'
tp2682
a(S'D015474'
S'D000740'
tp2683
a(S'D015474'
S'D014839'
tp2684
atRp2685
sS'11912119'
p2686
g3
((lp2687
(S'D007980'
S'D004409'
tp2688
atRp2689
sS'9067481'
p2690
g3
((lp2691
(S'D002251'
S'D056486'
tp2692
a(S'D000082'
S'D056486'
tp2693
a(S'D002725'
S'D056486'
tp2694
a(S'D004317'
S'D066126'
tp2695
a(S'D005688'
S'D056486'
tp2696
atRp2697
sS'19274460'
p2698
g3
((lp2699
(S'C400082'
S'D006402'
tp2700
a(S'D003520'
S'D006402'
tp2701
a(S'D003907'
S'D006402'
tp2702
a(S'C400082'
S'D005767'
tp2703
a(S'D003520'
S'D005767'
tp2704
a(S'D003907'
S'D009422'
tp2705
a(S'D003907'
S'D005767'
tp2706
a(S'C400082'
S'D009422'
tp2707
a(S'D003520'
S'D009422'
tp2708
atRp2709
sS'19721134'
p2710
g3
((lp2711
(S'D000157'
S'D001145'
tp2712
a(S'D010042'
S'D001145'
tp2713
atRp2714
sS'16960342'
p2715
g3
((lp2716
(S'D006513'
S'D006509'
tp2717
a(S'D006514'
S'D006509'
tp2718
atRp2719
sS'9523850'
p2720
g3
((lp2721
(S'D007505'
S'D018771'
tp2722
atRp2723
sS'16844102'
p2724
g3
((lp2725
(S'D008694'
S'D009422'
tp2726
a(S'D008694'
S'D005334'
tp2727
atRp2728
sS'10414674'
p2729
g3
((lp2730
(S'D007660'
S'D006406'
tp2731
a(S'D007660'
S'D001791'
tp2732
atRp2733
sS'6323692'
p2734
g3
((lp2735
(S'D003975'
S'D001259'
tp2736
a(S'C018824'
S'D001259'
tp2737
atRp2738
sS'9321531'
p2739
g3
((lp2740
(S'D007980'
S'D004409'
tp2741
atRp2742
sS'8800187'
p2743
g3
((lp2744
(S'D003891'
S'D001919'
tp2745
a(S'D002122'
S'D001145'
tp2746
a(S'D003891'
S'D007022'
tp2747
a(S'D003891'
S'D001145'
tp2748
atRp2749
sS'9630698'
p2750
g3
((lp2751
(S'D006220'
S'D009127'
tp2752
atRp2753
sS'591536'
p2754
g3
((lp2755
(S'D006493'
S'D001157'
tp2756
a(S'D006493'
S'D013921'
tp2757
atRp2758
sS'17682013'
p2759
g3
((lp2760
(S'D008727'
S'D056784'
tp2761
a(S'C017367'
S'D056784'
tp2762
a(S'D005472'
S'D056784'
tp2763
a(S'C110904'
S'D056784'
tp2764
atRp2765
sS'20466178'
p2766
g3
((lp2767
(S'C117268'
S'D003875'
tp2768
a(S'C117268'
S'D013684'
tp2769
a(S'C117268'
S'D003872'
tp2770
atRp2771
sS'9799166'
p2772
g3
((lp2773
(S'D003042'
S'D020521'
tp2774
a(S'D000661'
S'D020521'
tp2775
atRp2776
sS'1728915'
p2777
g3
((lp2778
(S'D002220'
S'D054537'
tp2779
a(S'D002220'
S'D013616'
tp2780
a(S'D002220'
S'D001919'
tp2781
atRp2782
sS'6732043'
p2783
g3
((lp2784
(S'D000728'
S'D020181'
tp2785
atRp2786
sS'11861791'
p2787
g3
((lp2788
(S'D004317'
S'D006333'
tp2789
atRp2790
sS'11027904'
p2791
g3
((lp2792
(S'D008691'
S'D006930'
tp2793
atRp2794
sS'9326871'
p2795
g3
((lp2796
(S'D017291'
S'D017180'
tp2797
a(S'D004917'
S'D005759'
tp2798
atRp2799
sS'18405372'
p2800
g3
((lp2801
(S'D012460'
S'D056486'
tp2802
atRp2803
sS'11282081'
p2804
g3
((lp2805
(S'D014700'
S'D001281'
tp2806
atRp2807
sS'9098464'
p2808
g3
((lp2809
(S'D005473'
S'D006966'
tp2810
a(S'D005473'
S'D062788'
tp2811
atRp2812
sS'16820346'
p2813
g3
((lp2814
(S'D003907'
S'D006973'
tp2815
atRp2816
sS'3123611'
p2817
g3
((lp2818
(S'D000661'
S'D002819'
tp2819
a(S'D003276'
S'D002819'
tp2820
atRp2821
sS'18201582'
p2822
g3
((lp2823
(S'C084178'
S'D003371'
tp2824
a(S'D017311'
S'D004487'
tp2825
a(S'C084178'
S'D004487'
tp2826
a(S'D017311'
S'D006261'
tp2827
a(S'C084178'
S'D006261'
tp2828
a(S'D017311'
S'D004244'
tp2829
a(S'C084178'
S'D003967'
tp2830
a(S'D017311'
S'D003371'
tp2831
a(S'C084178'
S'D004244'
tp2832
a(S'D017311'
S'D003967'
tp2833
atRp2834
sS'3973521'
p2835
g3
((lp2836
(S'C027278'
S'D007022'
tp2837
a(S'C027278'
S'D008133'
tp2838
atRp2839
sS'2598570'
p2840
g3
((lp2841
(S'D013496'
S'D021501'
tp2842
atRp2843
sS'11022397'
p2844
g3
((lp2845
(S'D012601'
S'D008569'
tp2846
atRp2847
sS'873132'
p2848
g3
((lp2849
(S'D004997'
S'D002779'
tp2850
atRp2851
sS'8424298'
p2852
g3
((lp2853
(S'D007530'
S'D007022'
tp2854
a(S'D007741'
S'D007022'
tp2855
atRp2856
sS'1300436'
p2857
g3
((lp2858
(S'D005665'
S'D058186'
tp2859
atRp2860
sS'9228650'
p2861
g3
((lp2862
(S'D012601'
S'D000647'
tp2863
a(S'C076946'
S'D000647'
tp2864
a(S'C049860'
S'D000647'
tp2865
a(S'D013619'
S'D000647'
tp2866
atRp2867
sS'17975693'
p2868
g3
((lp2869
(S'D009643'
S'D001008'
tp2870
a(S'D002939'
S'D001008'
tp2871
atRp2872
sS'19944333'
p2873
g3
((lp2874
(S'C471405'
S'D003329'
tp2875
atRp2876
sS'17074608'
p2877
g3
((lp2878
(S'D014635'
S'D002819'
tp2879
a(S'D014635'
S'D001927'
tp2880
atRp2881
sS'4090988'
p2882
g3
((lp2883
(S'D000082'
S'D001749'
tp2884
a(S'D000082'
S'D006965'
tp2885
a(S'D000082'
S'D008113'
tp2886
atRp2887
sS'1286498'
p2888
g3
((lp2889
(S'D005442'
S'D009325'
tp2890
a(S'D005442'
S'D014839'
tp2891
atRp2892
sS'3535719'
p2893
g3
((lp2894
(S'D010878'
S'D006311'
tp2895
a(S'D014031'
S'D006311'
tp2896
a(S'D009428'
S'D006311'
tp2897
a(S'D014031'
S'D007674'
tp2898
a(S'D010878'
S'D007674'
tp2899
a(S'D009428'
S'D007674'
tp2900
atRp2901
sS'19234905'
p2902
g3
((lp2903
(S'D007980'
S'D004409'
tp2904
atRp2905
sS'6699841'
p2906
g3
((lp2907
(S'D009288'
S'D007681'
tp2908
atRp2909
sS'8600333'
p2910
g3
((lp2911
(S'D004317'
S'D006331'
tp2912
atRp2913
sS'18541230'
p2914
g3
((lp2915
(S'D011692'
S'D009401'
tp2916
atRp2917
sS'9579567'
p2918
g3
((lp2919
(S'D013629'
S'D016889'
tp2920
atRp2921
sS'3411101'
p2922
g3
((lp2923
(S'C033457'
S'D056486'
tp2924
atRp2925
sS'6817363'
p2926
g3
((lp2927
(S'D012601'
S'D000647'
tp2928
a(S'D002701'
S'D008569'
tp2929
a(S'D003513'
S'D008569'
tp2930
atRp2931
sS'2594614'
p2932
g3
((lp2933
(S'D002045'
S'D001919'
tp2934
a(S'D002045'
S'D007022'
tp2935
atRp2936
sS'8494478'
p2937
g3
((lp2938
(S'D002939'
S'D058186'
tp2939
atRp2940
sS'15811908'
p2941
g3
((lp2942
(S'D063325'
S'D014839'
tp2943
a(S'D063325'
S'D006261'
tp2944
a(S'C012052'
S'D006973'
tp2945
a(S'D063325'
S'D006973'
tp2946
a(S'C012052'
S'D006261'
tp2947
a(S'C012052'
S'D014839'
tp2948
atRp2949
sS'48362'
p2950
g3
((lp2951
(S'D011802'
S'D056486'
tp2952
atRp2953
sS'19642243'
p2954
g3
((lp2955
(S'D014640'
S'D058186'
tp2956
a(S'C418563'
S'D058186'
tp2957
atRp2958
sS'18627295'
p2959
g3
((lp2960
(S'D004317'
S'D009202'
tp2961
atRp2962
sS'12101159'
p2963
g3
((lp2964
(S'D004110'
S'D006323'
tp2965
a(S'D004110'
S'D062787'
tp2966
a(S'D004110'
S'D007022'
tp2967
a(S'D004110'
S'D001919'
tp2968
atRp2969
sS'1899352'
p2970
g3
((lp2971
(S'D007069'
S'D007970'
tp2972
a(S'D007069'
S'D006417'
tp2973
a(S'D007069'
S'D009325'
tp2974
a(S'D007069'
S'D003221'
tp2975
atRp2976
sS'16826348'
p2977
g3
((lp2978
(S'D003561'
S'D010523'
tp2979
atRp2980
sS'9549528'
p2981
g3
((lp2982
(S'D007980'
S'D004409'
tp2983
atRp2984
sS'15638391'
p2985
g3
((lp2986
(S'D006220'
S'D006966'
tp2987
atRp2988
sS'783197'
p2989
g3
((lp2990
(S'D010042'
S'D002303'
tp2991
atRp2992
sS'20705401'
p2993
g3
((lp2994
(S'D008694'
S'D011605'
tp2995
atRp2996
sS'9867728'
p2997
g3
((lp2998
(S'D010645'
S'D001022'
tp2999
a(S'D005277'
S'D001022'
tp3000
atRp3001
sS'10743694'
p3002
g3
((lp3003
(S'D016559'
S'D009202'
tp3004
a(S'D016559'
S'D056486'
tp3005
a(S'D016559'
S'D020258'
tp3006
a(S'D016559'
S'D003922'
tp3007
a(S'D016559'
S'D000743'
tp3008
a(S'D016559'
S'D005767'
tp3009
a(S'D016559'
S'D011537'
tp3010
a(S'D016559'
S'D008232'
tp3011
a(S'D016559'
S'D007674'
tp3012
atRp3013
sS'21418164'
p3014
g3
((lp3015
(S'D008130'
S'D017093'
tp3016
a(S'D008130'
S'D009503'
tp3017
a(S'D008130'
S'D013921'
tp3018
a(S'D008130'
S'D005767'
tp3019
a(S'D008130'
S'D000740'
tp3020
a(S'D008130'
S'D007674'
tp3021
a(S'D008130'
S'D014839'
tp3022
atRp3023
sS'12013711'
p3024
g3
((lp3025
(S'D018967'
S'D010468'
tp3026
atRp3027
sS'8278214'
p3028
g3
((lp3029
(S'D009020'
S'D006930'
tp3030
a(S'D009020'
S'D009437'
tp3031
a(S'D009020'
S'D006941'
tp3032
a(S'D009020'
S'D009207'
tp3033
atRp3034
sS'7905523'
p3035
g3
((lp3036
(S'C059896'
S'D015746'
tp3037
a(S'C059896'
S'D005414'
tp3038
a(S'D015215'
S'D003967'
tp3039
a(S'C059896'
S'D003967'
tp3040
a(S'C059896'
S'D015431'
tp3041
a(S'D015215'
S'D015431'
tp3042
a(S'D015215'
S'D015746'
tp3043
a(S'D015215'
S'D005414'
tp3044
atRp3045
sS'3311455'
p3046
g3
((lp3047
(S'D016572'
S'D007674'
tp3048
atRp3049
sS'7710775'
p3050
g3
((lp3051
(S'D008315'
S'D002545'
tp3052
atRp3053
sS'15867025'
p3054
g3
((lp3055
(S'D006514'
S'D006509'
tp3056
atRp3057
sS'12760988'
p3058
g3
((lp3059
(S'D013390'
S'D063806'
tp3060
a(S'D013390'
S'D010149'
tp3061
atRp3062
sS'11890511'
p3063
g3
((lp3064
(S'D016627'
S'D007172'
tp3065
atRp3066
sS'7102237'
p3067
g3
((lp3068
(S'D008874'
S'D001049'
tp3069
a(S'D013874'
S'D001049'
tp3070
atRp3071
sS'1636026'
p3072
g3
((lp3073
(S'D013496'
S'D058186'
tp3074
atRp3075
sS'19893084'
p3076
g3
((lp3077
(S'D005839'
S'D058186'
tp3078
atRp3079
sS'8742498'
p3080
g3
((lp3081
(S'D000082'
S'D056486'
tp3082
a(S'D000431'
S'D056486'
tp3083
atRp3084
sS'1732442'
p3085
g3
((lp3086
(S'D004317'
S'D009202'
tp3087
atRp3088
sS'3769769'
p3089
g3
((lp3090
(S'D014282'
S'D001919'
tp3091
atRp3092
sS'804391'
p3093
g3
((lp3094
(S'D012293'
S'D011507'
tp3095
atRp3096
sS'384871'
p3097
g3
((lp3098
(S'D007538'
S'D009901'
tp3099
a(S'D004977'
S'D012607'
tp3100
a(S'D007538'
S'D012607'
tp3101
a(S'D004977'
S'D009901'
tp3102
atRp3103
sS'7189975'
p3104
g3
((lp3105
(S'D002045'
S'D012640'
tp3106
a(S'C004616'
S'D012640'
tp3107
a(S'D008012'
S'D012640'
tp3108
atRp3109
sS'15985056'
p3110
g3
((lp3111
(S'D017963'
S'D006606'
tp3112
a(S'D001418'
S'D006606'
tp3113
atRp3114
sS'8305357'
p3115
g3
((lp3116
(S'D003630'
S'D009503'
tp3117
atRp3118
sS'19940105'
p3119
g3
((lp3120
(S'D006220'
S'D002375'
tp3121
atRp3122
sS'16225977'
p3123
g3
((lp3124
(S'C012052'
S'D013981'
tp3125
atRp3126
sS'803783'
p3127
g3
((lp3128
(S'D010121'
S'D014869'
tp3129
atRp3130
sS'16174948'
p3131
g3
((lp3132
(S'D003042'
S'D017542'
tp3133
a(S'D003042'
S'D013345'
tp3134
atRp3135
sS'11226639'
p3136
g3
((lp3137
(S'D008550'
S'D053608'
tp3138
a(S'D003975'
S'D053608'
tp3139
a(S'D013874'
S'D053608'
tp3140
a(S'D007649'
S'D053608'
tp3141
atRp3142
sS'10840460'
p3143
g3
((lp3144
(S'D000171'
S'D010146'
tp3145
a(S'D003520'
S'D003556'
tp3146
a(S'D003520'
S'D010146'
tp3147
atRp3148
sS'12452237'
p3149
g3
((lp3150
(S'D013390'
S'D005207'
tp3151
a(S'D013390'
S'D010149'
tp3152
atRp3153
sS'16132524'
p3154
g3
((lp3155
(S'D017239'
S'D001929'
tp3156
atRp3157
sS'2055425'
p3158
g3
((lp3159
(S'D013311'
S'D003920'
tp3160
atRp3161
sS'3015327'
p3162
g3
((lp3163
(S'D007538'
S'D009422'
tp3164
atRp3165
sS'3653576'
p3166
g3
((lp3167
(S'D011692'
S'D011507'
tp3168
a(S'C001335'
S'D058186'
tp3169
a(S'C004504'
S'D058186'
tp3170
a(S'D011692'
S'D058186'
tp3171
atRp3172
sS'12734532'
p3173
g3
((lp3174
(S'D010665'
S'D009203'
tp3175
atRp3176
sS'2716967'
p3177
g3
((lp3178
(S'D007649'
S'D002375'
tp3179
a(S'D009020'
S'D002375'
tp3180
atRp3181
sS'18356633'
p3182
g3
((lp3183
(S'D000583'
S'D007674'
tp3184
atRp3185
sS'8643973'
p3186
g3
((lp3187
(S'D017239'
S'D007970'
tp3188
a(S'D017239'
S'D020258'
tp3189
a(S'D017239'
S'D013921'
tp3190
a(S'D016190'
S'D007970'
tp3191
a(S'D016190'
S'D000380'
tp3192
a(S'D017239'
S'D000380'
tp3193
a(S'D016190'
S'D020258'
tp3194
a(S'D016190'
S'D013921'
tp3195
atRp3196
sS'15096016'
p3197
g3
((lp3198
(S'D007980'
S'D004409'
tp3199
atRp3200
sS'6381653'
p3201
g3
((lp3202
(S'D007980'
S'D004409'
tp3203
atRp3204
sS'10074612'
p3205
g3
((lp3206
(S'D008775'
S'D007022'
tp3207
a(S'D008775'
S'D006323'
tp3208
a(S'D008775'
S'D001919'
tp3209
atRp3210
sS'2564649'
p3211
g3
((lp3212
(S'D005283'
S'D009127'
tp3213
atRp3214
sS'11858397'
p3215
g3
((lp3216
(S'D020117'
S'D016171'
tp3217
a(S'D004917'
S'D016171'
tp3218
a(S'D008787'
S'D016171'
tp3219
atRp3220
sS'2894433'
p3221
g3
((lp3222
(S'D003975'
S'D001919'
tp3223
a(S'D004837'
S'D001919'
tp3224
atRp3225
sS'8384253'
p3226
g3
((lp3227
(S'D014750'
S'D012678'
tp3228
atRp3229
sS'7337133'
p3230
g3
((lp3231
(S'D000082'
S'D001929'
tp3232
a(S'D000082'
S'D017093'
tp3233
atRp3234
sS'8854309'
p3235
g3
((lp3236
(S'D003042'
S'D011681'
tp3237
a(S'D003042'
S'D010259'
tp3238
atRp3239
sS'11009181'
p3240
g3
((lp3241
(S'D007980'
S'D004409'
tp3242
atRp3243
sS'9915601'
p3244
g3
((lp3245
(S'D007538'
S'D001919'
tp3246
a(S'D007538'
S'D007022'
tp3247
atRp3248
sS'9201797'
p3249
g3
((lp3250
(S'D006220'
S'D002375'
tp3251
atRp3252
sS'343678'
p3253
g3
((lp3254
(S'D006513'
S'D006509'
tp3255
atRp3256
sS'8617710'
p3257
g3
((lp3258
(S'D006220'
S'D003072'
tp3259
atRp3260
sS'1535072'
p3261
g3
((lp3262
(S'D002997'
S'D020018'
tp3263
atRp3264
sS'1504402'
p3265
g3
((lp3266
(S'D007741'
S'D056486'
tp3267
a(S'D007741'
S'D004342'
tp3268
atRp3269
sS'18808529'
p3270
g3
((lp3271
(S'D007545'
S'D009202'
tp3272
a(S'D007545'
S'D007511'
tp3273
atRp3274
sS'17285209'
p3275
g3
((lp3276
(S'C044946'
S'D000799'
tp3277
a(S'C044946'
S'D007410'
tp3278
a(S'D017311'
S'D007410'
tp3279
a(S'D017311'
S'D000799'
tp3280
atRp3281
sS'18674790'
p3282
g3
((lp3283
(S'D004041'
S'D009765'
tp3284
a(S'D004317'
S'D006331'
tp3285
atRp3286
sS'16563323'
p3287
g3
((lp3288
(S'D005045'
S'D009207'
tp3289
atRp3290
sS'19139001'
p3291
g3
((lp3292
(S'D013467'
S'D034381'
tp3293
atRp3294
sS'2569282'
p3295
g3
((lp3296
(S'D015760'
S'D009127'
tp3297
atRp3298
sS'11704023'
p3299
g3
((lp3300
(S'D013999'
S'D001919'
tp3301
atRp3302
sS'8888541'
p3303
g3
((lp3304
(S'C047426'
S'D012798'
tp3305
a(S'C047426'
S'D020230'
tp3306
a(S'C047426'
S'D009207'
tp3307
a(S'D014191'
S'D014202'
tp3308
a(S'D014191'
S'D013921'
tp3309
a(S'D014191'
S'D012798'
tp3310
a(S'C047426'
S'D005334'
tp3311
a(S'D014191'
S'D009207'
tp3312
a(S'D014191'
S'D003221'
tp3313
a(S'C047426'
S'D014202'
tp3314
a(S'C047426'
S'D013921'
tp3315
a(S'D014191'
S'D005334'
tp3316
a(S'D014191'
S'D009127'
tp3317
a(S'C047426'
S'D003221'
tp3318
a(S'D014191'
S'D020230'
tp3319
a(S'C047426'
S'D009127'
tp3320
atRp3321
sS'10193809'
p3322
g3
((lp3323
(S'D011692'
S'D011507'
tp3324
atRp3325
sS'3762968'
p3326
g3
((lp3327
(S'D014042'
S'D014899'
tp3328
atRp3329
sS'16596970'
p3330
g3
((lp3331
(S'D010862'
S'D001308'
tp3332
a(S'D010862'
S'D013226'
tp3333
atRp3334
sS'11302406'
p3335
g3
((lp3336
(S'D015725'
S'D016171'
tp3337
atRp3338
sS'9022662'
p3339
g3
((lp3340
(S'D010389'
S'D062787'
tp3341
a(S'D010389'
S'D001264'
tp3342
a(S'D010389'
S'D002819'
tp3343
atRp3344
sS'11099450'
p3345
g3
((lp3346
(S'D007980'
S'D004409'
tp3347
atRp3348
sS'16710500'
p3349
g3
((lp3350
(S'D004977'
S'D014786'
tp3351
a(S'D004977'
S'D009901'
tp3352
atRp3353
sS'20558148'
p3354
g3
((lp3355
(S'D006220'
S'D002375'
tp3356
atRp3357
sS'3670965'
p3358
g3
((lp3359
(S'D001241'
S'D012202'
tp3360
atRp3361
sS'2840807'
p3362
g3
((lp3363
(S'D000324'
S'D004421'
tp3364
a(S'D009074'
S'D004421'
tp3365
atRp3366
sS'6115999'
p3367
g3
((lp3368
(S'D001539'
S'D007172'
tp3369
a(S'D011433'
S'D007172'
tp3370
a(S'D011433'
S'D004417'
tp3371
a(S'D001539'
S'D006073'
tp3372
a(S'D001539'
S'D018149'
tp3373
a(S'D011433'
S'D011928'
tp3374
atRp3375
sS'7604176'
p3376
g3
((lp3377
(S'D017035'
S'D009220'
tp3378
atRp3379
sS'2004015'
p3380
g3
((lp3381
(S'D015215'
S'D000740'
tp3382
atRp3383
sS'6436733'
p3384
g3
((lp3385
(S'D014635'
S'D006970'
tp3386
a(S'D000641'
S'D006970'
tp3387
atRp3388
sS'12745515'
p3389
g3
((lp3390
(S'D016642'
S'D012640'
tp3391
atRp3392
sS'11079278'
p3393
g3
((lp3394
(S'D004280'
S'D017202'
tp3395
atRp3396
sS'15565293'
p3397
g3
((lp3398
(S'D004977'
S'D014786'
tp3399
a(S'D004977'
S'D009901'
tp3400
atRp3401
sS'19996135'
p3402
g3
((lp3403
(S'D014148'
S'D012640'
tp3404
atRp3405
sS'18161408'
p3406
g3
((lp3407
(S'D002996'
S'D013923'
tp3408
a(S'D002996'
S'D009203'
tp3409
atRp3410
sS'3413271'
p3411
g3
((lp3412
(S'D004837'
S'D017202'
tp3413
atRp3414
sS'1687392'
p3415
g3
((lp3416
(S'C534628'
S'D002375'
tp3417
a(S'D005476'
S'D002375'
tp3418
a(S'D013469'
S'D002375'
tp3419
atRp3420
sS'11245434'
p3421
g3
((lp3422
(S'D016190'
S'D000740'
tp3423
atRp3424
sS'7421734'
p3425
g3
((lp3426
(S'D004967'
S'D016889'
tp3427
atRp3428
sS'2907585'
p3429
g3
((lp3430
(S'D006220'
S'D002375'
tp3431
atRp3432
sS'17194457'
p3433
g3
((lp3434
(S'D013739'
S'D001523'
tp3435
atRp3436
sS'17490790'
p3437
g3
((lp3438
(S'D007505'
S'D009410'
tp3439
atRp3440
sS'8546130'
p3441
g3
((lp3442
(S'D017291'
S'D006212'
tp3443
atRp3444
sS'16574713'
p3445
g3
((lp3446
(S'D018817'
S'D008569'
tp3447
atRp3448
sS'9165568'
p3449
g3
((lp3450
(S'D018967'
S'D009459'
tp3451
atRp3452
sS'7416947'
p3453
g3
((lp3454
(S'D004077'
S'D020018'
tp3455
atRp3456
sS'11185967'
p3457
g3
((lp3458
(S'C005618'
S'D012640'
tp3459
atRp3460
sS'9848575'
p3461
g3
((lp3462
(S'D004317'
S'D009202'
tp3463
atRp3464
sS'8492347'
p3465
g3
((lp3466
(S'D005665'
S'D013746'
tp3467
a(S'D005665'
S'D012206'
tp3468
atRp3469
sS'2422478'
p3470
g3
((lp3471
(S'D008750'
S'D007022'
tp3472
atRp3473
sS'18513945'
p3474
g3
((lp3475
(S'D010121'
S'D007022'
tp3476
atRp3477
sS'8766220'
p3478
g3
((lp3479
(S'D017374'
S'D006212'
tp3480
a(S'D014147'
S'D006212'
tp3481
a(S'D004308'
S'D006212'
tp3482
atRp3483
sS'8686832'
p3484
g3
((lp3485
(S'D008012'
S'D001416'
tp3486
atRp3487
sS'9564988'
p3488
g3
((lp3489
(S'D064704'
S'D005414'
tp3490
a(S'D064704'
S'D009325'
tp3491
a(S'D064704'
S'D003967'
tp3492
atRp3493
sS'3183120'
p3494
g3
((lp3495
(S'C033706'
S'D001927'
tp3496
atRp3497
sS'326460'
p3498
g3
((lp3499
(S'D001539'
S'D007008'
tp3500
atRp3501
sS'4069770'
p3502
g3
((lp3503
(S'D005839'
S'D058186'
tp3504
atRp3505
sS'3780814'
p3506
g3
((lp3507
(S'D004052'
S'D011230'
tp3508
atRp3509
sS'16428827'
p3510
g3
((lp3511
(S'D012601'
S'D000647'
tp3512
atRp3513
sS'11705128'
p3514
g3
((lp3515
(S'D016898'
S'D000743'
tp3516
a(S'D012254'
S'D000743'
tp3517
atRp3518
sS'12481039'
p3519
g3
((lp3520
(S'D010862'
S'D012640'
tp3521
atRp3522
sS'6203632'
p3523
g3
((lp3524
(S'D007545'
S'D006965'
tp3525
a(S'D007545'
S'D006332'
tp3526
atRp3527
sS'16047871'
p3528
g3
((lp3529
(S'D014859'
S'D018366'
tp3530
atRp3531
sS'10411803'
p3532
g3
((lp3533
(S'D015313'
S'D000743'
tp3534
atRp3535
sS'14648024'
p3536
g3
((lp3537
(S'D014212'
S'D004893'
tp3538
a(S'D014212'
S'D005334'
tp3539
atRp3540
sS'8911359'
p3541
g3
((lp3542
(S'D003520'
S'D001749'
tp3543
atRp3544
sS'8638876'
p3545
g3
((lp3546
(S'D011374'
S'D012851'
tp3547
a(S'D011374'
S'D002543'
tp3548
a(S'D004958'
S'D002544'
tp3549
a(S'D004958'
S'D002341'
tp3550
a(S'D004958'
S'D012851'
tp3551
a(S'D011374'
S'D002341'
tp3552
a(S'D004958'
S'D002543'
tp3553
a(S'D011374'
S'D002544'
tp3554
atRp3555
sS'12911170'
p3556
g3
((lp3557
(S'D002939'
S'D000743'
tp3558
a(S'D002939'
S'D009395'
tp3559
a(S'D002939'
S'D007676'
tp3560
atRp3561
sS'1628552'
p3562
g3
((lp3563
(S'D002738'
S'D006333'
tp3564
a(S'D002738'
S'D012164'
tp3565
a(S'D002738'
S'D002037'
tp3566
a(S'D002738'
S'D004244'
tp3567
a(S'D002738'
S'D004417'
tp3568
a(S'D002738'
S'D001766'
tp3569
a(S'D002738'
S'D005221'
tp3570
a(S'D002738'
S'D013575'
tp3571
atRp3572
sS'3732088'
p3573
g3
((lp3574
(S'D002752'
S'D018879'
tp3575
atRp3576
sS'663266'
p3577
g3
((lp3578
(S'D004492'
S'D014693'
tp3579
a(S'C027278'
S'D014693'
tp3580
a(S'C102006'
S'D014693'
tp3581
atRp3582
sS'20394767'
p3583
g3
((lp3584
(S'D015016'
S'D012021'
tp3585
a(S'C015068'
S'D012021'
tp3586
a(S'D010433'
S'D012021'
tp3587
atRp3588
sS'1711760'
p3589
g3
((lp3590
(S'D010656'
S'D006973'
tp3591
atRp3592
sS'20164825'
p3593
g3
((lp3594
(S'D005839'
S'D058186'
tp3595
atRp3596
sS'2886572'
p3597
g3
((lp3598
(S'D004837'
S'D006973'
tp3599
atRp3600
sS'3969369'
p3601
g3
((lp3602
(S'D013739'
S'D011471'
tp3603
a(S'D013739'
S'D011472'
tp3604
atRp3605
sS'15893386'
p3606
g3
((lp3607
(S'D013390'
S'D014313'
tp3608
atRp3609
sS'19719056'
p3610
g3
((lp3611
(S'D002351'
S'D004487'
tp3612
a(S'D002351'
S'D010146'
tp3613
atRp3614
sS'3686155'
p3615
g3
((lp3616
(S'D001971'
S'D011605'
tp3617
atRp3618
sS'14745746'
p3619
g3
((lp3620
(S'D013629'
S'D003072'
tp3621
a(S'C090450'
S'D003072'
tp3622
a(S'C090450'
S'D008569'
tp3623
a(S'D013629'
S'D008569'
tp3624
atRp3625
sS'6111982'
p3626
g3
((lp3627
(S'D010042'
S'D001145'
tp3628
atRp3629
sS'1079693'
p3630
g3
((lp3631
(S'D006886'
S'D012164'
tp3632
atRp3633
sS'3952818'
p3634
g3
((lp3635
(S'D005472'
S'D000788'
tp3636
a(S'D005472'
S'D002637'
tp3637
atRp3638
sS'12600698'
p3639
g3
((lp3640
(S'D013307'
S'D015837'
tp3641
atRp3642
sS'16600756'
p3643
g3
((lp3644
(S'D015237'
S'D053201'
tp3645
a(S'D015232'
S'D053201'
tp3646
atRp3647
sS'15517007'
p3648
g3
((lp3649
(S'D003520'
S'D006331'
tp3650
a(S'D008942'
S'D006331'
tp3651
atRp3652
sS'12231232'
p3653
g3
((lp3654
(S'D006220'
S'D009127'
tp3655
atRp3656
sS'2220369'
p3657
g3
((lp3658
(S'C015173'
S'D020246'
tp3659
atRp3660
sS'19944736'
p3661
g3
((lp3662
(S'D018021'
S'D012640'
tp3663
a(S'D013619'
S'D012640'
tp3664
a(S'D013619'
S'D001930'
tp3665
a(S'D018021'
S'D001930'
tp3666
atRp3667
sS'6794356'
p3668
g3
((lp3669
(S'D016651'
S'D003490'
tp3670
a(S'D016651'
S'D001145'
tp3671
a(S'D016651'
S'D003866'
tp3672
atRp3673
sS'10523326'
p3674
g3
((lp3675
(S'D007854'
S'D006973'
tp3676
atRp3677
sS'133615'
p3678
g3
((lp3679
(S'D003276'
S'D013924'
tp3680
a(S'D003276'
S'D012164'
tp3681
a(S'D003276'
S'D001778'
tp3682
a(S'D003276'
S'D009203'
tp3683
atRp3684
sS'15764424'
p3685
g3
((lp3686
(S'D003042'
S'D011605'
tp3687
a(S'D003042'
S'D006948'
tp3688
a(S'D008694'
S'D006948'
tp3689
a(S'D000661'
S'D006948'
tp3690
a(S'D008694'
S'D011605'
tp3691
a(S'D000661'
S'D011605'
tp3692
atRp3693
sS'2790457'
p3694
g3
((lp3695
(S'D003042'
S'D012640'
tp3696
a(S'D008012'
S'D012640'
tp3697
atRp3698
sS'2334179'
p3699
g3
((lp3700
(S'D010396'
S'D009404'
tp3701
a(S'D010396'
S'D011507'
tp3702
atRp3703
sS'28952'
p3704
g3
((lp3705
(S'D002752'
S'D007008'
tp3706
atRp3707
sS'7437994'
p3708
g3
((lp3709
(S'D008094'
S'D011141'
tp3710
atRp3711
sS'7791169'
p3712
g3
((lp3713
(S'D007213'
S'D007674'
tp3714
atRp3715
sS'7910951'
p3716
g3
((lp3717
(S'D000305'
S'D009135'
tp3718
a(S'D003473'
S'D018908'
tp3719
a(S'D003473'
S'D009468'
tp3720
atRp3721
sS'8473723'
p3722
g3
((lp3723
(S'D008728'
S'D012640'
tp3724
a(S'D016666'
S'D012640'
tp3725
atRp3726
sS'3137399'
p3727
g3
((lp3728
(S'D004317'
S'D006333'
tp3729
a(S'D016685'
S'D006333'
tp3730
atRp3731
sS'3088349'
p3732
g3
((lp3733
(S'D000661'
S'D009069'
tp3734
atRp3735
sS'19135948'
p3736
g3
((lp3737
(S'C107135'
S'D006504'
tp3738
a(S'D016559'
S'D006504'
tp3739
a(S'D016559'
S'D058186'
tp3740
a(S'C107135'
S'D014652'
tp3741
a(S'D016559'
S'D014652'
tp3742
a(S'C107135'
S'D058186'
tp3743
atRp3744
sS'8410199'
p3745
g3
((lp3746
(S'D010862'
S'D012640'
tp3747
a(S'D010862'
S'D009410'
tp3748
atRp3749
sS'16471092'
p3750
g3
((lp3751
(S'C099041'
S'D014987'
tp3752
atRp3753
sS'7053705'
p3754
g3
((lp3755
(S'D013866'
S'D006504'
tp3756
atRp3757
sS'15673851'
p3758
g3
((lp3759
(S'D009020'
S'D020336'
tp3760
atRp3761
sS'14975762'
p3762
g3
((lp3763
(S'D004317'
S'D006333'
tp3764
atRp3765
sS'9875685'
p3766
g3
((lp3767
(S'D014031'
S'D034381'
tp3768
atRp3769
sS'1848636'
p3770
g3
((lp3771
(S'D013726'
S'D007008'
tp3772
atRp3773
sS'11058428'
p3774
g3
((lp3775
(S'D008775'
S'D009135'
tp3776
atRp3777
sS'12139551'
p3778
g3
((lp3779
(S'D008787'
S'D006323'
tp3780
atRp3781
sS'20195852'
p3782
g3
((lp3783
(S'D003287'
S'D007674'
tp3784
a(S'D007472'
S'D007674'
tp3785
a(S'C038192'
S'D007674'
tp3786
atRp3787
sS'20510337'
p3788
g3
((lp3789
(S'D002945'
S'D058186'
tp3790
atRp3791
sS'1355091'
p3792
g3
((lp3793
(S'D009638'
S'D001919'
tp3794
a(S'C056299'
S'D006973'
tp3795
a(S'C014282'
S'D006973'
tp3796
a(S'D011224'
S'D007024'
tp3797
a(S'C056299'
S'D001919'
tp3798
a(S'D009638'
S'D006973'
tp3799
a(S'C014282'
S'D001919'
tp3800
atRp3801
sS'6942642'
p3802
g3
((lp3803
(S'D006852'
S'D007008'
tp3804
a(S'D006852'
S'D001145'
tp3805
atRp3806
sS'2343592'
p3807
g3
((lp3808
(S'C044650'
S'D012640'
tp3809
atRp3810
sS'17049862'
p3811
g3
((lp3812
(S'D010672'
S'D001919'
tp3813
atRp3814
sS'2576810'
p3815
g3
((lp3816
(S'D008729'
S'D006948'
tp3817
a(S'D000661'
S'D006948'
tp3818
a(S'D009627'
S'D006948'
tp3819
a(S'D016666'
S'D006948'
tp3820
atRp3821
sS'17263743'
p3822
g3
((lp3823
(S'D003000'
S'D001919'
tp3824
a(S'D003000'
S'D007022'
tp3825
a(S'D003000'
S'D006323'
tp3826
atRp3827
sS'1595783'
p3828
g3
((lp3829
(S'D000638'
S'D011014'
tp3830
a(S'D000638'
S'D004342'
tp3831
atRp3832
sS'20683499'
p3833
g3
((lp3834
(S'D013311'
S'D003072'
tp3835
a(S'D013311'
S'D000544'
tp3836
atRp3837
sS'19370593'
p3838
g3
((lp3839
(S'D011374'
S'D054556'
tp3840
a(S'D004967'
S'D020521'
tp3841
a(S'D004967'
S'D003704'
tp3842
a(S'D004967'
S'D054556'
tp3843
a(S'D004967'
S'D005705'
tp3844
a(S'D011374'
S'D003704'
tp3845
atRp3846
sS'12851669'
p3847
g3
((lp3848
(S'D003277'
S'D054556'
tp3849
atRp3850
sS'8988571'
p3851
g3
((lp3852
(S'D003042'
S'D003645'
tp3853
a(S'D003042'
S'D012206'
tp3854
a(S'D003042'
S'D003693'
tp3855
atRp3856
sS'2051906'
p3857
g3
((lp3858
(S'D001379'
S'D002779'
tp3859
atRp3860
sS'18589141'
p3861
g3
((lp3862
(S'D006493'
S'D013921'
tp3863
atRp3864
sS'9214597'
p3865
g3
((lp3866
(S'D004958'
S'D010911'
tp3867
atRp3868
sS'15266362'
p3869
g3
((lp3870
(S'D004280'
S'D009205'
tp3871
a(S'D004280'
S'D004342'
tp3872
a(S'D004280'
S'D004802'
tp3873
atRp3874
sS'18997632'
p3875
g3
((lp3876
(S'D002110'
S'D017180'
tp3877
a(S'D002110'
S'D018879'
tp3878
a(S'D002110'
S'D012640'
tp3879
atRp3880
sS'20304337'
p3881
g3
((lp3882
(S'D003042'
S'D003389'
tp3883
atRp3884
sS'21294084'
p3885
g3
((lp3886
(S'D010400'
S'D004827'
tp3887
atRp3888
sS'19761039'
p3889
g3
((lp3890
(S'D012110'
S'D004409'
tp3891
atRp3892
sS'9305828'
p3893
g3
((lp3894
(S'D010862'
S'D004833'
tp3895
atRp3896
sS'6674249'
p3897
g3
((lp3898
(S'D015119'
S'D009336'
tp3899
a(S'D015119'
S'D009135'
tp3900
atRp3901
sS'1700207'
p3902
g3
((lp3903
(S'D004837'
S'D001145'
tp3904
a(S'D010042'
S'D001145'
tp3905
atRp3906
sS'19707748'
p3907
g3
((lp3908
(S'D064704'
S'D012640'
tp3909
atRp3910
sS'11900788'
p3911
g3
((lp3912
(S'D009538'
S'D002375'
tp3913
a(S'D009020'
S'D002375'
tp3914
atRp3915
sS'7880714'
p3916
g3
((lp3917
(S'D004837'
S'D034381'
tp3918
a(S'D002045'
S'D034381'
tp3919
atRp3920
sS'6292680'
p3921
g3
((lp3922
(S'D004317'
S'D009202'
tp3923
atRp3924
sS'3084782'
p3925
g3
((lp3926
(S'D008625'
S'D009393'
tp3927
a(S'D008625'
S'D003872'
tp3928
a(S'D006046'
S'D003872'
tp3929
atRp3930
sS'6695415'
p3931
g3
((lp3932
(S'D010665'
S'D002543'
tp3933
a(S'D010665'
S'D013345'
tp3934
a(S'D010665'
S'D020521'
tp3935
a(S'D010665'
S'D006973'
tp3936
a(S'D002110'
S'D002543'
tp3937
a(S'D002110'
S'D013345'
tp3938
a(S'D002110'
S'D006973'
tp3939
atRp3940
sS'6454943'
p3941
g3
((lp3942
(S'D011692'
S'D011507'
tp3943
atRp3944
sS'20727411'
p3945
g3
((lp3946
(S'D007649'
S'D011605'
tp3947
atRp3948
sS'85485'
p3949
g3
((lp3950
(S'D001556'
S'D006528'
tp3951
atRp3952
sS'8607407'
p3953
g3
((lp3954
(S'D002110'
S'D006973'
tp3955
atRp3956
sS'2722224'
p3957
g3
((lp3958
(S'D006854'
S'D006973'
tp3959
atRp3960
sS'11467664'
p3961
g3
((lp3962
(S'D008687'
S'D002779'
tp3963
a(S'D008687'
S'D041781'
tp3964
atRp3965
sS'2466960'
p3966
g3
((lp3967
(S'D005472'
S'D007511'
tp3968
a(S'D005472'
S'D000787'
tp3969
atRp3970
sS'16116131'
p3971
g3
((lp3972
(S'D007980'
S'D004409'
tp3973
atRp3974
sS'7651879'
p3975
g3
((lp3976
(S'D005442'
S'D012640'
tp3977
atRp3978
sS'2322844'
p3979
g3
((lp3980
(S'D015230'
S'D006930'
tp3981
a(S'D015232'
S'D006930'
tp3982
atRp3983
sS'10692744'
p3984
g3
((lp3985
(S'D000086'
S'D005862'
tp3986
atRp3987
sS'7785794'
p3988
g3
((lp3989
(S'D008790'
S'D007022'
tp3990
a(S'D014700'
S'D007022'
tp3991
a(S'D008790'
S'D006327'
tp3992
a(S'D014700'
S'D006327'
tp3993
atRp3994
sS'6293644'
p3995
g3
((lp3996
(S'D006220'
S'D002375'
tp3997
a(S'D001058'
S'D006948'
tp3998
atRp3999
sS'16192988'
p4000
g3
((lp4001
(S'D008694'
S'D001523'
tp4002
atRp4003
sS'19692487'
p4004
g3
((lp4005
(S'D018021'
S'D011141'
tp4006
atRp4007
sS'6216862'
p4008
g3
((lp4009
(S'D010396'
S'D005076'
tp4010
a(S'D010396'
S'D017285'
tp4011
a(S'D010396'
S'D009157'
tp4012
a(S'D010396'
S'D008180'
tp4013
a(S'D010396'
S'D011507'
tp4014
atRp4015
sS'11860495'
p4016
g3
((lp4017
(S'D012601'
S'D000647'
tp4018
atRp4019
sS'6540303'
p4020
g3
((lp4021
(S'D004298'
S'D002389'
tp4022
a(S'D008550'
S'D002389'
tp4023
a(S'D012701'
S'D002389'
tp4024
a(S'D007649'
S'D002389'
tp4025
atRp4026
sS'10091616'
p4027
g3
((lp4028
(S'D007980'
S'D004409'
tp4029
a(S'D001058'
S'D004409'
tp4030
atRp4031
sS'16418614'
p4032
g3
((lp4033
(S'D011441'
S'D014657'
tp4034
atRp4035
sS'10565806'
p4036
g3
((lp4037
(S'C076029'
S'D001714'
tp4038
atRp4039
sS'6496797'
p4040
g3
((lp4041
(S'D014196'
S'D006327'
tp4042
atRp4043
sS'3120485'
p4044
g3
((lp4045
(S'D003975'
S'D000647'
tp4046
atRp4047
sS'15930398'
p4048
g3
((lp4049
(S'D015742'
S'D000647'
tp4050
atRp4051
sS'1928887'
p4052
g3
((lp4053
(S'D000806'
S'D007022'
tp4054
a(S'D000806'
S'D062787'
tp4055
atRp4056
sS'9672273'
p4057
g3
((lp4058
(S'D013629'
S'D014652'
tp4059
a(S'D013629'
S'D015228'
tp4060
atRp4061
sS'3108839'
p4062
g3
((lp4063
(S'D016685'
S'D006463'
tp4064
a(S'D016685'
S'D051437'
tp4065
atRp4066
sS'1969772'
p4067
g3
((lp4068
(S'D018818'
S'D007022'
tp4069
a(S'D006221'
S'D007022'
tp4070
a(S'D009599'
S'D007022'
tp4071
atRp4072
sS'8268147'
p4073
g3
((lp4074
(S'D010396'
S'D017285'
tp4075
atRp4076
sS'1255900'
p4077
g3
((lp4078
(S'D006493'
S'D011702'
tp4079
atRp4080
sS'458486'
p4081
g3
((lp4082
(S'D007980'
S'D004409'
tp4083
atRp4084
sS'8267029'
p4085
g3
((lp4086
(S'D010396'
S'D005921'
tp4087
atRp4088
sS'18363626'
p4089
g3
((lp4090
(S'D020927'
S'D001919'
tp4091
atRp4092
sS'12571256'
p4093
g3
((lp4094
(S'D007472'
S'D007674'
tp4095
atRp4096
sS'12109865'
p4097
g3
((lp4098
(S'D006495'
S'D006470'
tp4099
a(S'D006495'
S'D013923'
tp4100
atRp4101
sS'7161250'
p4102
g3
((lp4103
(S'D006220'
S'D010302'
tp4104
atRp4105
sS'10524660'
p4106
g3
((lp4107
(S'D005996'
S'D020326'
tp4108
a(S'D009569'
S'D020326'
tp4109
atRp4110
sS'3703509'
p4111
g3
((lp4112
(S'D011241'
S'D006943'
tp4113
a(S'D011241'
S'D003128'
tp4114
a(S'D011241'
S'D007022'
tp4115
a(S'D011241'
S'D000140'
tp4116
a(S'D011241'
S'D007662'
tp4117
atRp4118
sS'9061311'
p4119
g3
((lp4120
(S'D000082'
S'D017114'
tp4121
atRp4122
sS'11860278'
p4123
g3
((lp4124
(S'D010862'
S'D012640'
tp4125
a(S'D007608'
S'D012640'
tp4126
atRp4127
sS'8111719'
p4128
g3
((lp4129
(S'D007069'
S'D006212'
tp4130
atRp4131
sS'3950060'
p4132
g3
((lp4133
(S'D000583'
S'D007674'
tp4134
atRp4135
sS'15814210'
p4136
g3
((lp4137
(S'D003907'
S'D009422'
tp4138
atRp4139
sS'18657397'
p4140
g3
((lp4141
(S'D010400'
S'D004827'
tp4142
atRp4143
sS'17511042'
p4144
g3
((lp4145
(S'C417083'
S'D063726'
tp4146
a(S'D012254'
S'D063726'
tp4147
atRp4148
sS'17965424'
p4149
g3
((lp4150
(S'D004008'
S'D005767'
tp4151
a(S'C422649'
S'D004487'
tp4152
a(S'C422649'
S'D006973'
tp4153
atRp4154
sS'12852481'
p4155
g3
((lp4156
(S'D001241'
S'D000014'
tp4157
a(S'D001241'
S'D006345'
tp4158
a(S'D001241'
S'D065630'
tp4159
atRp4160
sS'15266215'
p4161
g3
((lp4162
(S'D001241'
S'D013927'
tp4163
atRp4164
sS'6637851'
p4165
g3
((lp4166
(S'D000638'
S'D000855'
tp4167
a(S'D000638'
S'D009325'
tp4168
a(S'D000638'
S'D001259'
tp4169
a(S'D000638'
S'D013959'
tp4170
a(S'D000638'
S'D014786'
tp4171
atRp4172
sS'3057041'
p4173
g3
((lp4174
(S'C020976'
S'D013651'
tp4175
a(S'C020976'
S'D006970'
tp4176
atRp4177
sS'2339463'
p4178
g3
((lp4179
(S'D015119'
S'D020225'
tp4180
atRp4181
sS'18177388'
p4182
g3
((lp4183
(S'D000661'
S'D054549'
tp4184
atRp4185
sS'2709684'
p4186
g3
((lp4187
(S'D005839'
S'D058186'
tp4188
a(S'D013311'
S'D003920'
tp4189
atRp4190
sS'9431903'
p4191
g3
((lp4192
(S'D009020'
S'D013035'
tp4193
a(S'D009388'
S'D013035'
tp4194
a(S'D009020'
S'D046628'
tp4195
a(S'D009388'
S'D046628'
tp4196
atRp4197
sS'2819587'
p4198
g3
((lp4199
(S'D003276'
S'D020246'
tp4200
atRp4201
sS'16725121'
p4202
g3
((lp4203
(S'D003042'
S'D012640'
tp4204
a(S'D008012'
S'D012640'
tp4205
atRp4206
sS'16157917'
p4207
g3
((lp4208
(S'C047781'
S'D009207'
tp4209
atRp4210
sS'3461217'
p4211
g3
((lp4212
(S'D008770'
S'D011471'
tp4213
a(S'D043343'
S'D011471'
tp4214
atRp4215
sS'20973483'
p4216
g3
((lp4217
(S'D006220'
S'D002375'
tp4218
a(S'D012110'
S'D004409'
tp4219
atRp4220
sS'9270571'
p4221
g3
((lp4222
(S'D015632'
S'D020734'
tp4223
a(S'D007980'
S'D004409'
tp4224
atRp4225
sS'11847945'
p4226
g3
((lp4227
(S'D007530'
S'D002779'
tp4228
a(S'D007530'
S'D056486'
tp4229
atRp4230
sS'19300240'
p4231
g3
((lp4232
(S'D005472'
S'D054549'
tp4233
a(S'D005472'
S'D002637'
tp4234
atRp4235
sS'9514561'
p4236
g3
((lp4237
(S'D002211'
S'D010146'
tp4238
atRp4239
sS'15580403'
p4240
g3
((lp4241
(S'D007372'
S'D000743'
tp4242
a(S'D012254'
S'D000743'
tp4243
atRp4244
sS'9952311'
p4245
g3
((lp4246
(S'D004317'
S'D028361'
tp4247
a(S'D004317'
S'D001919'
tp4248
atRp4249
sS'10533019'
p4250
g3
((lp4251
(S'D004110'
S'D013746'
tp4252
atRp4253
sS'1141447'
p4254
g3
((lp4255
(S'D008094'
S'D003919'
tp4256
atRp4257
sS'11243580'
p4258
g3
((lp4259
(S'D008012'
S'D012640'
tp4260
atRp4261
sS'19674115'
p4262
g3
((lp4263
(S'D011718'
S'D000857'
tp4264
atRp4265
sS'7197363'
p4266
g3
((lp4267
(S'D001058'
S'D001523'
tp4268
a(S'D011814'
S'D009069'
tp4269
atRp4270
sS'6728084'
p4271
g3
((lp4272
(S'D007612'
S'D007674'
tp4273
a(S'D005839'
S'D007674'
tp4274
atRp4275
sS'11063349'
p4276
g3
((lp4277
(S'D016572'
S'D007674'
tp4278
a(S'D016559'
S'D007674'
tp4279
atRp4280
sS'12549952'
p4281
g3
((lp4282
(S'D016642'
S'D017114'
tp4283
a(S'D016642'
S'D056486'
tp4284
a(S'D002231'
S'D017114'
tp4285
a(S'D002231'
S'D056486'
tp4286
atRp4287
sS'9121607'
p4288
g3
((lp4289
(S'D007608'
S'D013226'
tp4290
a(S'D010862'
S'D013226'
tp4291
a(S'D010862'
S'D012640'
tp4292
a(S'D007608'
S'D012640'
tp4293
atRp4294
sS'8475949'
p4295
g3
((lp4296
(S'D010419'
S'D016171'
tp4297
atRp4298
sS'2826064'
p4299
g3
((lp4300
(S'D013726'
S'D007008'
tp4301
atRp4302
sS'7724492'
p4303
g3
((lp4304
(S'D004317'
S'D011507'
tp4305
atRp4306
sS'6308526'
p4307
g3
((lp4308
(S'D009020'
S'D001919'
tp4309
a(S'D009020'
S'D007022'
tp4310
a(S'D009020'
S'D002375'
tp4311
a(S'D009020'
S'D007035'
tp4312
atRp4313
sS'3431591'
p4314
g3
((lp4315
(S'C031662'
S'D056486'
tp4316
a(S'C031662'
S'D005221'
tp4317
a(S'C031662'
S'D007674'
tp4318
atRp4319
sS'3708922'
p4320
g3
((lp4321
(S'D016572'
S'D007674'
tp4322
atRp4323
sS'9105126'
p4324
g3
((lp4325
(S'D013256'
S'D018658'
tp4326
atRp4327
sS'839274'
p4328
g3
((lp4329
(S'D003276'
S'D020518'
tp4330
a(S'D003276'
S'D000236'
tp4331
atRp4332
sS'7263204'
p4333
g3
((lp4334
(S'D007213'
S'D000741'
tp4335
atRp4336
sS'7647582'
p4337
g3
((lp4338
(S'D006221'
S'D056486'
tp4339
a(S'D004737'
S'D056486'
tp4340
a(S'D007530'
S'D056486'
tp4341
atRp4342
sS'10539815'
p4343
g3
((lp4344
(S'D004232'
S'D051437'
tp4345
a(S'D004656'
S'D051437'
tp4346
atRp4347
sS'6769133'
p4348
g3
((lp4349
(S'D004317'
S'D006333'
tp4350
a(S'D004317'
S'D015470'
tp4351
atRp4352
sS'15531665'
p4353
g3
((lp4354
(S'D001205'
S'D002318'
tp4355
atRp4356
sS'430165'
p4357
g3
((lp4358
(S'D010672'
S'D002526'
tp4359
a(S'D010672'
S'D062787'
tp4360
a(S'D010672'
S'D010291'
tp4361
atRp4362
sS'3934126'
p4363
g3
((lp4364
(S'D014640'
S'D011507'
tp4365
a(S'D014640'
S'D013924'
tp4366
a(S'D014640'
S'D006311'
tp4367
a(S'D014640'
S'D005076'
tp4368
atRp4369
sS'18086064'
p4370
g3
((lp4371
(S'D020927'
S'D007022'
tp4372
a(S'D020927'
S'D001919'
tp4373
atRp4374
sS'16364460'
p4375
g3
((lp4376
(S'D012601'
S'D000647'
tp4377
atRp4378
sS'17786501'
p4379
g3
((lp4380
(S'D004221'
S'D009901'
tp4381
a(S'D004221'
S'D012607'
tp4382
a(S'D004221'
S'D010292'
tp4383
atRp4384
sS'10328196'
p4385
g3
((lp4386
(S'D020123'
S'D019559'
tp4387
atRp4388
sS'7542793'
p4389
g3
((lp4390
(S'D016572'
S'D007674'
tp4391
a(S'D016559'
S'D007674'
tp4392
atRp4393
sS'16586083'
p4394
g3
((lp4395
(S'D016861'
S'D006333'
tp4396
a(S'D016861'
S'D020521'
tp4397
a(S'D016861'
S'D006973'
tp4398
a(S'D016861'
S'D009203'
tp4399
atRp4400
sS'2320800'
p4401
g3
((lp4402
(S'D007069'
S'D001002'
tp4403
a(S'D007069'
S'D007674'
tp4404
atRp4405
sS'4038130'
p4406
g3
((lp4407
(S'D008619'
S'D009135'
tp4408
a(S'D002045'
S'D009135'
tp4409
a(S'D008012'
S'D009135'
tp4410
atRp4411
sS'6153967'
p4412
g3
((lp4413
(S'D004737'
S'D012640'
tp4414
atRp4415
sS'19105845'
p4416
g3
((lp4417
(S'D016642'
S'D012640'
tp4418
atRp4419
sS'3300918'
p4420
g3
((lp4421
(S'D004876'
S'D008881'
tp4422
a(S'D008784'
S'D014652'
tp4423
atRp4424
sS'17923537'
p4425
g3
((lp4426
(S'D005446'
S'D009798'
tp4427
atRp4428
sS'6150641'
p4429
g3
((lp4430
(S'D002927'
S'D007172'
tp4431
atRp4432
sS'7066357'
p4433
g3
((lp4434
(S'D011692'
S'D009404'
tp4435
atRp4436
sS'11077455'
p4437
g3
((lp4438
(S'D020888'
S'D014786'
tp4439
atRp4440
sS'2750819'
p4441
g3
((lp4442
(S'D008278'
S'D020879'
tp4443
a(S'D009543'
S'D020879'
tp4444
atRp4445
sS'11195262'
p4446
g3
((lp4447
(S'D014635'
S'D007177'
tp4448
atRp4449
sS'6504332'
p4450
g3
((lp4451
(S'D010634'
S'D004409'
tp4452
atRp4453
sS'8045270'
p4454
g3
((lp4455
(S'C061282'
S'D002375'
tp4456
a(S'D006220'
S'D002375'
tp4457
a(S'D012110'
S'D002375'
tp4458
atRp4459
sS'15686794'
p4460
g3
((lp4461
(S'D000638'
S'D017116'
tp4462
atRp4463
sS'11868798'
p4464
g3
((lp4465
(S'D000666'
S'D007008'
tp4466
atRp4467
sS'9669632'
p4468
g3
((lp4469
(S'D020117'
S'D015746'
tp4470
atRp4471
sS'10354657'
p4472
g3
((lp4473
(S'D008094'
S'D007037'
tp4474
atRp4475
sS'1423339'
p4476
g3
((lp4477
(S'D011433'
S'D000647'
tp4478
atRp4479
sS'2257294'
p4480
g3
((lp4481
(S'D015215'
S'D007970'
tp4482
a(S'D015215'
S'D001855'
tp4483
a(S'D015215'
S'D000740'
tp4484
atRp4485
sS'12093990'
p4486
g3
((lp4487
(S'C059262'
S'D058186'
tp4488
a(S'C059262'
S'D009503'
tp4489
atRp4490
sS'20533999'
p4491
g3
((lp4492
(S'D008694'
S'D020258'
tp4493
atRp4494
sS'12091028'
p4495
g3
((lp4496
(S'D007649'
S'D006212'
tp4497
atRp4498
sS'11230490'
p4499
g3
((lp4500
(S'D004317'
S'D009503'
tp4501
a(S'D003520'
S'D006333'
tp4502
a(S'D004317'
S'D006333'
tp4503
a(S'D003520'
S'D009503'
tp4504
atRp4505
sS'8586822'
p4506
g3
((lp4507
(S'D017673'
S'D006973'
tp4508
atRp4509
sS'3131282'
p4510
g3
((lp4511
(S'D002083'
S'D013274'
tp4512
atRp4513
sS'2917114'
p4514
g3
((lp4515
(S'D004491'
S'D001919'
tp4516
atRp4517
sS'17366349'
p4518
g3
((lp4519
(S'C092292'
S'D009459'
tp4520
atRp4521
sS'18006530'
p4522
g3
((lp4523
(S'D015742'
S'D010146'
tp4524
atRp4525
sS'6892185'
p4526
g3
((lp4527
(S'D002217'
S'D014202'
tp4528
a(S'D002217'
S'D004830'
tp4529
a(S'D010830'
S'D015878'
tp4530
a(S'D010830'
S'D004830'
tp4531
a(S'D002217'
S'D015878'
tp4532
a(S'D010830'
S'D014202'
tp4533
atRp4534
sS'16584858'
p4535
g3
((lp4536
(S'D007545'
S'D009203'
tp4537
atRp4538
sS'16634859'
p4539
g3
((lp4540
(S'D000431'
S'D006130'
tp4541
a(S'D000661'
S'D006130'
tp4542
atRp4543
sS'17241657'
p4544
g3
((lp4545
(S'D003042'
S'D012640'
tp4546
atRp4547
sS'8599504'
p4548
g3
((lp4549
(S'D004329'
S'D000799'
tp4550
atRp4551
sS'12842176'
p4552
g3
((lp4553
(S'D001556'
S'D012640'
tp4554
atRp4555
sS'6415512'
p4556
g3
((lp4557
(S'D002220'
S'D004832'
tp4558
a(S'D002220'
S'D004831'
tp4559
atRp4560
sS'11827497'
p4561
g3
((lp4562
(S'D006493'
S'D001157'
tp4563
a(S'D006493'
S'D054556'
tp4564
a(S'D006493'
S'D013921'
tp4565
a(S'D006493'
S'D011655'
tp4566
atRp4567
sS'7007443'
p4568
g3
((lp4569
(S'D000082'
S'D017114'
tp4570
atRp4571
sS'6402369'
p4572
g3
((lp4573
(S'D007069'
S'D001745'
tp4574
atRp4575
sS'16006300'
p4576
g3
((lp4577
(S'C019248'
S'D006996'
tp4578
a(S'D002119'
S'D006934'
tp4579
atRp4580
sS'17042884'
p4581
g3
((lp4582
(S'D006220'
S'D014202'
tp4583
a(S'D006220'
S'D001480'
tp4584
a(S'D008094'
S'D001480'
tp4585
a(S'D008094'
S'D014202'
tp4586
a(S'D006220'
S'D017109'
tp4587
atRp4588
sS'14704468'
p4589
g3
((lp4590
(S'D000628'
S'D012640'
tp4591
a(S'D001498'
S'D012640'
tp4592
a(S'D001640'
S'D012640'
tp4593
atRp4594
sS'2980315'
p4595
g3
((lp4596
(S'D008794'
S'D014693'
tp4597
atRp4598
sS'20103708'
p4599
g3
((lp4600
(S'D013311'
S'D003928'
tp4601
atRp4602
sS'9205462'
p4603
g3
((lp4604
(S'D013629'
S'D017093'
tp4605
a(S'D013629'
S'C537296'
tp4606
atRp4607
sS'19923525'
p4608
g3
((lp4609
(S'D005996'
S'D008569'
tp4610
a(S'D005996'
S'D007022'
tp4611
atRp4612
sS'10728962'
p4613
g3
((lp4614
(S'D020105'
S'D007022'
tp4615
a(S'D014667'
S'D007022'
tp4616
atRp4617
sS'9758264'
p4618
g3
((lp4619
(S'D005492'
S'D012640'
tp4620
a(S'D005492'
S'D008180'
tp4621
atRp4622
sS'17490864'
p4623
g3
((lp4624
(S'D000661'
S'D006948'
tp4625
atRp4626
sS'950631'
p4627
g3
((lp4628
(S'D010396'
S'D007674'
tp4629
a(S'D010396'
S'D011507'
tp4630
atRp4631
sS'11573852'
p4632
g3
((lp4633
(S'D000666'
S'D012640'
tp4634
atRp4635
sS'6615052'
p4636
g3
((lp4637
(S'D006493'
S'D013923'
tp4638
a(S'D006493'
S'D013921'
tp4639
a(S'D006493'
S'D006470'
tp4640
atRp4641
sS'3001299'
p4642
g3
((lp4643
(S'D008094'
S'D007037'
tp4644
atRp4645
sS'7752389'
p4646
g3
((lp4647
(S'D015232'
S'D053201'
tp4648
atRp4649
sS'8841157'
p4650
g3
((lp4651
(S'D017311'
S'D004487'
tp4652
a(S'C081489'
S'D004487'
tp4653
atRp4654
sS'15276120'
p4655
g3
((lp4656
(S'D014859'
S'D020300'
tp4657
a(S'D014859'
S'D006470'
tp4658
atRp4659
sS'17574447'
p4660
g3
((lp4661
(S'D010634'
S'D002761'
tp4662
a(S'D010634'
S'D008107'
tp4663
atRp4664
sS'7803371'
p4665
g3
((lp4666
(S'D003915'
S'D003072'
tp4667
atRp4668
sS'2021202'
p4669
g3
((lp4670
(S'D007530'
S'D007022'
tp4671
atRp4672
sS'1610717'
p4673
g3
((lp4674
(S'D003042'
S'D012640'
tp4675
atRp4676
sS'11337188'
p4677
g3
((lp4678
(S'D010068'
S'D018366'
tp4679
a(S'D010068'
S'D051437'
tp4680
a(S'D000305'
S'D051437'
tp4681
a(S'D000305'
S'D018366'
tp4682
atRp4683
sS'921394'
p4684
g3
((lp4685
(S'D007649'
S'D013610'
tp4686
atRp4687
sS'8012887'
p4688
g3
((lp4689
(S'D006493'
S'D013927'
tp4690
atRp4691
sS'11583940'
p4692
g3
((lp4693
(S'D016572'
S'D007674'
tp4694
a(S'D016559'
S'D007674'
tp4695
atRp4696
sS'7072798'
p4697
g3
((lp4698
(S'D002701'
S'D000741'
tp4699
atRp4700
sS'8665051'
p4701
g3
((lp4702
(S'D008775'
S'D000855'
tp4703
a(S'D008775'
S'D009133'
tp4704
a(S'D014221'
S'D000855'
tp4705
a(S'D014221'
S'D015431'
tp4706
a(S'D008775'
S'D015431'
tp4707
a(S'D014221'
S'D009133'
tp4708
atRp4709
sS'19319147'
p4710
g3
((lp4711
(S'D014859'
S'D002543'
tp4712
atRp4713
sS'9041081'
p4714
g3
((lp4715
(S'D000305'
S'D009798'
tp4716
atRp4717
sS'1415380'
p4718
g3
((lp4719
(S'D011803'
S'D006463'
tp4720
atRp4721
sS'18483878'
p4722
g3
((lp4723
(S'D003520'
S'D003556'
tp4724
atRp4725
sS'7282516'
p4726
g3
((lp4727
(S'D004317'
S'D009202'
tp4728
atRp4729
sS'9226773'
p4730
g3
((lp4731
(S'D008094'
S'D018500'
tp4732
a(S'D008094'
S'D011141'
tp4733
atRp4734
sS'15042318'
p4735
g3
((lp4736
(S'D004317'
S'D001281'
tp4737
atRp4738
sS'11271907'
p4739
g3
((lp4740
(S'D003520'
S'D006470'
tp4741
a(S'D003520'
S'D009205'
tp4742
atRp4743
sS'3961813'
p4744
g3
((lp4745
(S'D007531'
S'D009410'
tp4746
a(S'C025541'
S'D009422'
tp4747
a(S'C025541'
S'D009410'
tp4748
a(S'D007531'
S'D009422'
tp4749
atRp4750
sS'1564236'
p4751
g3
((lp4752
(S'D004176'
S'D006940'
tp4753
atRp4754
sS'11524350'
p4755
g3
((lp4756
(S'C037663'
S'D012640'
tp4757
a(S'C037663'
S'D001145'
tp4758
a(S'C476513'
S'D001145'
tp4759
a(S'C476513'
S'D012640'
tp4760
a(S'C476513'
S'D006323'
tp4761
a(S'C037663'
S'D006323'
tp4762
atRp4763
sS'9545159'
p4764
g3
((lp4765
(S'D001393'
S'D008133'
tp4766
a(S'D020117'
S'D016757'
tp4767
a(S'D001393'
S'D016171'
tp4768
a(S'D004917'
S'D016757'
tp4769
a(S'D004917'
S'D008133'
tp4770
a(S'D004917'
S'D016171'
tp4771
a(S'D020117'
S'D016171'
tp4772
a(S'D004110'
S'D008133'
tp4773
a(S'D001393'
S'D016757'
tp4774
a(S'D020117'
S'D008133'
tp4775
atRp4776
sS'12448656'
p4777
g3
((lp4778
(S'D013792'
S'D006970'
tp4779
a(S'D013792'
S'D003248'
tp4780
atRp4781
sS'6118280'
p4782
g3
((lp4783
(S'D009118'
S'D009207'
tp4784
atRp4785
sS'11752998'
p4786
g3
((lp4787
(S'D002211'
S'D006930'
tp4788
atRp4789
sS'16720068'
p4790
g3
((lp4791
(S'D000525'
S'D009459'
tp4792
a(S'D017374'
S'D009459'
tp4793
atRp4794
sS'17943461'
p4795
g3
((lp4796
(S'D015215'
S'D009202'
tp4797
a(S'D015215'
S'D002311'
tp4798
atRp4799
sS'11694026'
p4800
g3
((lp4801
(S'D000082'
S'D000799'
tp4802
a(S'D000894'
S'D000799'
tp4803
a(S'C012655'
S'D000799'
tp4804
atRp4805
sS'12739036'
p4806
g3
((lp4807
(S'D002738'
S'D009133'
tp4808
a(S'D002738'
S'D018908'
tp4809
atRp4810
sS'625456'
p4811
g3
((lp4812
(S'D002119'
S'D053040'
tp4813
a(S'D017693'
S'D006934'
tp4814
a(S'D002119'
S'D006934'
tp4815
a(S'D017693'
S'D053040'
tp4816
atRp4817
sS'20735774'
p4818
g3
((lp4819
(S'D000082'
S'D017114'
tp4820
atRp4821
sS'18239197'
p4822
g3
((lp4823
(S'D014282'
S'D003072'
tp4824
atRp4825
sS'12691807'
p4826
g3
((lp4827
(S'D007980'
S'D004421'
tp4828
atRp4829
sS'12180796'
p4830
g3
((lp4831
(S'D018818'
S'D001167'
tp4832
a(S'D013806'
S'D001167'
tp4833
atRp4834
sS'19058474'
p4835
g3
((lp4836
(S'D014859'
S'D006471'
tp4837
a(S'D005419'
S'D006471'
tp4838
atRp4839
sS'33969'
p4840
g3
((lp4841
(S'D001590'
S'D001008'
tp4842
a(S'D001590'
S'D004409'
tp4843
a(S'C017610'
S'D010302'
tp4844
a(S'D001590'
S'D003866'
tp4845
atRp4846
sS'6433367'
p4847
g3
((lp4848
(S'D005481'
S'D012640'
tp4849
a(S'D010433'
S'D012640'
tp4850
a(S'D010852'
S'D012640'
tp4851
a(S'D001640'
S'D012640'
tp4852
atRp4853
sS'7565311'
p4854
g3
((lp4855
(S'D016190'
S'D058186'
tp4856
atRp4857
sS'11284996'
p4858
g3
((lp4859
(S'D009569'
S'D006261'
tp4860
a(S'D005996'
S'D006261'
tp4861
atRp4862
sS'20552622'
p4863
g3
((lp4864
(S'D000420'
S'D013617'
tp4865
atRp4866
sS'15974569'
p4867
g3
((lp4868
(S'D002351'
S'D006930'
tp4869
a(S'D002211'
S'D006930'
tp4870
atRp4871
sS'8677458'
p4872
g3
((lp4873
(S'D015080'
S'D003556'
tp4874
a(S'D007069'
S'D003556'
tp4875
a(S'D007069'
S'D006470'
tp4876
a(S'D015080'
S'D006470'
tp4877
atRp4878
sS'11999899'
p4879
g3
((lp4880
(S'D012110'
S'D004409'
tp4881
a(S'D012110'
S'D002375'
tp4882
a(S'D012110'
S'D014202'
tp4883
atRp4884
sS'3220106'
p4885
g3
((lp4886
(S'D009538'
S'D006948'
tp4887
atRp4888
sS'8958188'
p4889
g3
((lp4890
(S'C045894'
S'D052016'
tp4891
a(S'C045894'
S'D013921'
tp4892
atRp4893
sS'20042557'
p4894
g3
((lp4895
(S'D015742'
S'D011183'
tp4896
a(S'D015742'
S'D003693'
tp4897
atRp4898
sS'17702969'
p4899
g3
((lp4900
(S'D005473'
S'D006976'
tp4901
a(S'D005473'
S'D005315'
tp4902
atRp4903
sS'20331935'
p4904
g3
((lp4905
(S'D018967'
S'D006966'
tp4906
atRp4907
sS'11078231'
p4908
g3
((lp4909
(S'D004280'
S'D003329'
tp4910
a(S'D004280'
S'D000788'
tp4911
atRp4912
sS'761833'
p4913
g3
((lp4914
(S'D000643'
S'D003128'
tp4915
atRp4916
sS'10027919'
p4917
g3
((lp4918
(S'D002117'
S'D006934'
tp4919
a(S'C051883'
S'D006934'
tp4920
a(S'D002117'
S'D001851'
tp4921
a(S'C051883'
S'D054559'
tp4922
atRp4923
sS'15897593'
p4924
g3
((lp4925
(S'D005047'
S'D006402'
tp4926
a(S'D003630'
S'D006402'
tp4927
a(S'D004317'
S'D015431'
tp4928
a(S'D004317'
S'D006402'
tp4929
a(S'D003630'
S'D015431'
tp4930
a(S'D005047'
S'D015431'
tp4931
atRp4932
sS'20635749'
p4933
g3
((lp4934
(S'D000638'
S'D009230'
tp4935
a(S'D000638'
S'D007037'
tp4936
a(S'D000638'
S'D003128'
tp4937
atRp4938
sS'7596955'
p4939
g3
((lp4940
(S'C048081'
S'D009325'
tp4941
a(S'C045645'
S'D006261'
tp4942
a(S'C048081'
S'D006261'
tp4943
a(S'C048081'
S'D005483'
tp4944
a(S'C045645'
S'D005483'
tp4945
a(S'C045645'
S'D009325'
tp4946
atRp4947
sS'9154656'
p4948
g3
((lp4949
(S'D011692'
S'D009404'
tp4950
atRp4951
sS'8643966'
p4952
g3
((lp4953
(S'D017239'
S'D011115'
tp4954
a(S'D017239'
S'D018771'
tp4955
a(S'D017239'
S'D009325'
tp4956
a(S'D017239'
S'D009503'
tp4957
a(S'D017239'
S'D063806'
tp4958
a(S'D017239'
S'D014839'
tp4959
atRp4960
sS'2893236'
p4961
g3
((lp4962
(S'D013874'
S'D012133'
tp4963
atRp4964
sS'14742097'
p4965
g3
((lp4966
(S'D005473'
S'D020018'
tp4967
a(S'D017374'
S'D020018'
tp4968
a(S'D020280'
S'D020018'
tp4969
atRp4970
sS'19203554'
p4971
g3
((lp4972
(S'D012460'
S'D005923'
tp4973
a(S'D012460'
S'D010996'
tp4974
a(S'D012460'
S'D005334'
tp4975
atRp4976
sS'188339'
p4977
g3
((lp4978
(S'D003276'
S'D008113'
tp4979
atRp4980
sS'15858223'
p4981
g3
((lp4982
(S'D014635'
S'D005234'
tp4983
a(S'D014635'
S'D056486'
tp4984
a(S'D014635'
S'D009336'
tp4985
a(S'C075750'
S'D056486'
tp4986
a(S'D017392'
S'D056486'
tp4987
a(S'D008054'
S'D056486'
tp4988
atRp4989
sS'15579441'
p4990
g3
((lp4991
(S'D011692'
S'D009404'
tp4992
a(S'D011692'
S'D000860'
tp4993
atRp4994
sS'14633084'
p4995
g3
((lp4996
(S'D007069'
S'D003556'
tp4997
a(S'D007069'
S'D006470'
tp4998
atRp4999
sS'2533791'
p5000
g3
((lp5001
(S'D006513'
S'D006509'
tp5002
a(S'D006514'
S'D006509'
tp5003
atRp5004
sS'16629641'
p5005
g3
((lp5006
(S'D007372'
S'D000743'
tp5007
a(S'D012254'
S'D000743'
tp5008
atRp5009
sS'3962737'
p5010
g3
((lp5011
(S'D000638'
S'D008103'
tp5012
a(S'D000638'
S'D002779'
tp5013
a(S'D000638'
S'D005234'
tp5014
a(S'D000638'
S'D056486'
tp5015
atRp5016
sS'18441470'
p5017
g3
((lp5018
(S'D008094'
S'D012804'
tp5019
a(S'D008094'
S'D054537'
tp5020
atRp5021
sS'8514073'
p5022
g3
((lp5023
(S'D008874'
S'D014652'
tp5024
a(S'D003975'
S'D014652'
tp5025
atRp5026
sS'3780697'
p5027
g3
((lp5028
(S'D005283'
S'D009127'
tp5029
atRp5030
sS'12042105'
p5031
g3
((lp5032
(S'C052342'
S'D053040'
tp5033
atRp5034
sS'2004'
p5035
g3
((lp5036
(S'D013881'
S'D013617'
tp5037
a(S'D013881'
S'D017180'
tp5038
a(S'D000639'
S'D002037'
tp5039
a(S'D009661'
S'D002037'
tp5040
atRp5041
sS'8106150'
p5042
g3
((lp5043
(S'C005177'
S'D004409'
tp5044
a(S'D015632'
S'D020734'
tp5045
atRp5046
sS'982002'
p5047
g3
((lp5048
(S'D012293'
S'D058186'
tp5049
atRp5050
sS'10910842'
p5051
g3
((lp5052
(S'D011239'
S'D018908'
tp5053
a(S'D011239'
S'D009133'
tp5054
atRp5055
sag2
(g3
tRp5056
S'3323599'
p5057
g3
((lp5058
(S'D011692'
p5059
S'D007676'
p5060
tp5061
a(S'D011692'
p5062
S'D005923'
p5063
tp5064
a(S'D011692'
p5065
S'D009404'
p5066
tp5067
atRp5068
sS'24971338'
p5069
g3
((lp5070
(S'D016572'
p5071
S'D007674'
p5072
tp5073
a(S'D020123'
p5074
S'D011507'
p5075
tp5076
atRp5077
sS'16731636'
p5078
g3
((lp5079
(S'D007545'
p5080
S'D006332'
p5081
tp5082
atRp5083
sS'10933650'
p5084
g3
((lp5085
(S'C059765'
p5086
S'D007683'
p5087
tp5088
atRp5089
sS'17543491'
p5090
g3
((lp5091
(S'D011318'
p5092
S'D014826'
p5093
tp5094
atRp5095
sS'24881749'
p5096
g3
((lp5097
(S'D063325'
p5098
S'D009459'
p5099
tp5100
a(S'D013747'
p5101
S'D009459'
p5102
tp5103
atRp5104
sS'17255138'
p5105
g3
((lp5106
(S'D000894'
p5107
S'D006471'
p5108
tp5109
a(S'C116926'
p5110
S'D006471'
p5111
tp5112
a(S'D009288'
p5113
S'D006471'
p5114
tp5115
a(S'C116926'
p5116
S'D009203'
p5117
tp5118
a(S'D000894'
p5119
S'D009203'
p5120
tp5121
a(S'D052246'
p5122
S'D009203'
p5123
tp5124
a(S'D009288'
p5125
S'D009203'
p5126
tp5127
atRp5128
sS'7369302'
p5129
g3
((lp5130
(S'D011803'
p5131
S'D001766'
p5132
tp5133
a(S'D011803'
p5134
S'D015845'
p5135
tp5136
a(S'D011803'
p5137
S'D000550'
p5138
tp5139
atRp5140
sS'8603459'
p5141
g3
((lp5142
(S'D004317'
p5143
S'D066126'
p5144
tp5145
atRp5146
sS'2614930'
p5147
g3
((lp5148
(S'D009543'
p5149
S'D001919'
p5150
tp5151
a(S'D009543'
p5152
S'D013610'
p5153
tp5154
atRp5155
sS'3083835'
p5156
g3
((lp5157
(S'D010406'
p5158
S'D000707'
p5159
tp5160
atRp5161
sS'19715529'
p5162
g3
((lp5163
(S'D016559'
p5164
S'D054038'
p5165
tp5166
atRp5167
sS'9382023'
p5168
g3
((lp5169
(S'D004280'
p5170
S'D006973'
p5171
tp5172
atRp5173
sS'18945509'
p5174
g3
((lp5175
(S'D005905'
p5176
S'D003324'
p5177
tp5178
atRp5179
sS'19553912'
p5180
g3
((lp5181
(S'D020123'
p5182
S'D000740'
p5183
tp5184
atRp5185
sS'18987260'
p5186
g3
((lp5187
(S'D004317'
p5188
S'D014511'
p5189
tp5190
a(S'D004317'
p5191
S'D005923'
p5192
tp5193
a(S'D004317'
p5194
S'D011507'
p5195
tp5196
atRp5197
sS'10672628'
p5198
g3
((lp5199
(S'D006220'
p5200
S'D002375'
p5201
tp5202
atRp5203
sS'8808730'
p5204
g3
((lp5205
(S'D003520'
p5206
S'D003556'
p5207
tp5208
atRp5209
sS'23535177'
p5210
g3
((lp5211
(S'D007980'
p5212
S'D004409'
p5213
tp5214
atRp5215
sS'15859361'
p5216
g3
((lp5217
(S'D000082'
p5218
S'D003875'
p5219
tp5220
a(S'C105934'
p5221
S'D000799'
p5222
tp5223
a(S'C012655'
p5224
S'D003875'
p5225
tp5226
atRp5227
sS'24459006'
p5228
g3
((lp5229
(S'D015725'
p5230
S'D000380'
p5231
tp5232
a(S'D015725'
p5233
S'D013921'
p5234
tp5235
atRp5236
sS'10726030'
p5237
g3
((lp5238
(S'D006493'
p5239
S'D013921'
p5240
tp5241
a(S'D006493'
p5242
S'D006994'
p5243
tp5244
a(S'D006493'
p5245
S'D000505'
p5246
tp5247
a(S'D006493'
p5248
S'D004802'
p5249
tp5250
a(S'D006493'
p5251
S'D012871'
p5252
tp5253
a(S'D006493'
p5254
S'D006947'
p5255
tp5256
a(S'D006493'
p5257
S'D010024'
p5258
tp5259
a(S'D006493'
p5260
S'D004342'
p5261
tp5262
a(S'D006493'
p5263
S'D011317'
p5264
tp5265
atRp5266
sS'23666265'
p5267
g3
((lp5268
(S'D003520'
p5269
S'D003556'
p5270
tp5271
a(S'D003520'
p5272
S'D010146'
p5273
tp5274
a(S'D003520'
p5275
S'D004487'
p5276
tp5277
atRp5278
sS'20046642'
p5279
g3
((lp5280
(S'D002330'
p5281
S'D007859'
p5282
tp5283
a(S'D002330'
p5284
S'D003072'
p5285
tp5286
a(S'D002330'
p5287
S'D008569'
p5288
tp5289
atRp5290
sS'24778426'
p5291
g3
((lp5292
(S'D002945'
p5293
S'D058186'
p5294
tp5295
atRp5296
sS'11229942'
p5297
g3
((lp5298
(S'D000431'
p5299
S'D017180'
p5300
tp5301
a(S'C066444'
p5302
S'D002303'
p5303
tp5304
a(S'D003042'
p5305
S'D017180'
p5306
tp5307
atRp5308
sS'17297207'
p5309
g3
((lp5310
(S'D011803'
p5311
S'D018879'
p5312
tp5313
atRp5314
sS'6687006'
p5315
g3
((lp5316
(S'D003913'
p5317
S'D006948'
p5318
tp5319
atRp5320
sS'7949506'
p5321
g3
((lp5322
(S'D003000'
p5323
S'D007022'
p5324
tp5325
a(S'D014700'
p5326
S'D007022'
p5327
tp5328
a(S'D014700'
p5329
S'D054537'
p5330
tp5331
a(S'D003000'
p5332
S'D054537'
p5333
tp5334
atRp5335
sS'17721298'
p5336
g3
((lp5337
(S'D016578'
p5338
S'D003320'
p5339
tp5340
atRp5341
sS'895432'
p5342
g3
((lp5343
(S'D007545'
p5344
S'D009203'
p5345
tp5346
atRp5347
sS'14748761'
p5348
g3
((lp5349
(S'C030852'
p5350
S'D066126'
p5351
tp5352
atRp5353
sS'4082466'
p5354
g3
((lp5355
(S'D009020'
p5356
S'D012640'
p5357
tp5358
atRp5359
sS'19655282'
p5360
g3
((lp5361
(S'D003042'
p5362
S'D002637'
p5363
tp5364
a(S'D003042'
p5365
S'D017202'
p5366
tp5367
atRp5368
sS'24040781'
p5369
g3
((lp5370
(S'C107135'
p5371
S'D000686'
p5372
tp5373
a(S'C107135'
p5374
S'D011507'
p5375
tp5376
atRp5377
sS'931801'
p5378
g3
((lp5379
(S'D000617'
p5380
S'D058186'
p5381
tp5382
a(S'D007612'
p5383
S'D058186'
p5384
tp5385
atRp5386
sS'35781'
p5387
g3
((lp5388
(S'D005283'
p5389
S'D002375'
p5390
tp5391
a(S'D009278'
p5392
S'D002375'
p5393
tp5394
a(S'D003000'
p5395
S'D002375'
p5396
tp5397
a(S'C009695'
p5398
S'D002375'
p5399
tp5400
a(S'D003061'
p5401
S'D002375'
p5402
tp5403
a(S'D009020'
p5404
S'D002375'
p5405
tp5406
atRp5407
sS'689020'
p5408
g3
((lp5409
(S'D012312'
p5410
S'D014202'
p5411
tp5412
a(S'D005280'
p5413
S'D014202'
p5414
tp5415
atRp5416
sS'20192893'
p5417
g3
((lp5418
(S'D003287'
p5419
S'D007674'
p5420
tp5421
atRp5422
sS'19419794'
p5423
g3
((lp5424
(S'D007980'
p5425
S'D004409'
p5426
tp5427
atRp5428
sS'8188982'
p5429
g3
((lp5430
(S'D010656'
p5431
S'D006973'
p5432
tp5433
a(S'D001127'
p5434
S'D006973'
p5435
tp5436
a(S'D009599'
p5437
S'D007022'
p5438
tp5439
atRp5440
sS'20682692'
p5441
g3
((lp5442
(S'D013311'
p5443
S'D003928'
p5444
tp5445
atRp5446
sS'24742750'
p5447
g3
((lp5448
(S'D015283'
p5449
S'D016171'
p5450
tp5451
a(S'D016593'
p5452
S'D016171'
p5453
tp5454
atRp5455
sS'2021990'
p5456
g3
((lp5457
(S'D002927'
p5458
S'D007022'
p5459
tp5460
atRp5461
sS'11708428'
p5462
g3
((lp5463
(S'D011241'
p5464
S'D001008'
p5465
tp5466
atRp5467
sS'1905439'
p5468
g3
((lp5469
(S'D016595'
p5470
S'D003693'
p5471
tp5472
atRp5473
sS'20009434'
p5474
g3
((lp5475
(S'D008727'
p5476
S'D058186'
p5477
tp5478
atRp5479
sS'10960401'
p5480
g3
((lp5481
(S'D009020'
p5482
S'D004244'
p5483
tp5484
a(S'D009020'
p5485
S'D009759'
p5486
tp5487
atRp5488
sS'6627074'
p5489
g3
((lp5490
(S'D013390'
p5491
S'D001049'
p5492
tp5493
atRp5494
sS'26033014'
p5495
g3
((lp5496
(S'C051786'
p5497
S'D008224'
p5498
tp5499
a(S'C051786'
p5500
S'D008113'
p5501
tp5502
atRp5503
sS'19139825'
p5504
g3
((lp5505
(S'D019772'
p5506
S'D009503'
p5507
tp5508
a(S'D019772'
p5509
S'D008231'
p5510
tp5511
atRp5512
sS'24190587'
p5513
g3
((lp5514
(S'D018817'
p5515
S'D003866'
p5516
tp5517
atRp5518
sS'851038'
p5519
g3
((lp5520
(S'D007980'
p5521
S'D007008'
p5522
tp5523
atRp5524
sS'23952588'
p5525
g3
((lp5526
(S'D007980'
p5527
S'D004409'
p5528
tp5529
atRp5530
sS'17223814'
p5531
g3
((lp5532
(S'D015251'
p5533
S'D054537'
p5534
tp5535
a(S'D003520'
p5536
S'D054537'
p5537
tp5538
a(S'D017239'
p5539
S'D054537'
p5540
tp5541
atRp5542
sS'24812279'
p5543
g3
((lp5544
(S'D004317'
p5545
S'D006333'
p5546
tp5547
atRp5548
sS'15817013'
p5549
g3
((lp5550
(S'D014859'
p5551
S'D006470'
p5552
tp5553
atRp5554
sS'19020118'
p5555
g3
((lp5556
(S'D014148'
p5557
S'D051437'
p5558
tp5559
a(S'D014148'
p5560
S'D012640'
p5561
tp5562
atRp5563
sS'7147232'
p5564
g3
((lp5565
(S'D000255'
p5566
S'D007022'
p5567
tp5568
a(S'D009599'
p5569
S'D007022'
p5570
tp5571
atRp5572
sS'24923469'
p5573
g3
((lp5574
(S'D005839'
p5575
S'D058186'
p5576
tp5577
a(S'D014031'
p5578
S'D058186'
p5579
tp5580
a(S'D014640'
p5581
S'D058186'
p5582
tp5583
atRp5584
sS'19515070'
p5585
g3
((lp5586
(S'D000082'
p5587
S'D017114'
p5588
tp5589
a(S'D000082'
p5590
S'D058186'
p5591
tp5592
atRp5593
sS'16911931'
p5594
g3
((lp5595
(S'D006513'
p5596
S'D006509'
p5597
tp5598
atRp5599
sS'8755612'
p5600
g3
((lp5601
(S'D004054'
p5602
S'D010911'
p5603
tp5604
atRp5605
sS'24158386'
p5606
g3
((lp5607
(S'D008775'
p5608
S'D013921'
p5609
tp5610
a(S'D008775'
p5611
S'D009503'
p5612
tp5613
a(S'C056507'
p5614
S'D009503'
p5615
tp5616
a(S'C056507'
p5617
S'D013921'
p5618
tp5619
atRp5620
sS'10713017'
p5621
g3
((lp5622
(S'D005277'
p5623
S'D006976'
p5624
tp5625
atRp5626
sS'3191389'
p5627
g3
((lp5628
(S'D012980'
p5629
S'D012640'
p5630
tp5631
a(S'D010862'
p5632
S'D013226'
p5633
tp5634
a(S'D010862'
p5635
S'D012640'
p5636
tp5637
a(S'D010653'
p5638
S'D012640'
p5639
tp5640
atRp5641
sS'17496739'
p5642
g3
((lp5643
(S'C085143'
p5644
S'D004830'
p5645
tp5646
a(S'C085143'
p5647
S'D014202'
p5648
tp5649
a(S'C085143'
p5650
S'D003221'
p5651
tp5652
atRp5653
sS'17484470'
p5654
g3
((lp5655
(S'D011433'
p5656
S'D006333'
p5657
tp5658
atRp5659
sS'9759693'
p5660
g3
((lp5661
(S'D018170'
p5662
S'D017091'
p5663
tp5664
atRp5665
sS'8308951'
p5666
g3
((lp5667
(S'D014859'
p5668
S'D002543'
p5669
tp5670
atRp5671
sS'1280054'
p5672
g3
((lp5673
(S'D014750'
p5674
S'D001927'
p5675
tp5676
a(S'D014750'
p5677
S'D007049'
p5678
tp5679
atRp5680
sS'2358093'
p5681
g3
((lp5682
(S'D003613'
p5683
S'D009120'
p5684
tp5685
a(S'D003613'
p5686
S'D008599'
p5687
tp5688
a(S'D003613'
p5689
S'D015430'
p5690
tp5691
atRp5692
sS'3990093'
p5693
g3
((lp5694
(S'D011692'
p5695
S'D011507'
p5696
tp5697
atRp5698
sS'12059909'
p5699
g3
((lp5700
(S'D003520'
p5701
S'D003556'
p5702
tp5703
a(S'D003520'
p5704
S'D006470'
p5705
tp5706
atRp5707
sS'6673474'
p5708
g3
((lp5709
(S'D009599'
p5710
S'D007022'
p5711
tp5712
a(S'D014294'
p5713
S'D007022'
p5714
tp5715
atRp5716
sS'4010471'
p5717
g3
((lp5718
(S'D009538'
p5719
S'D012640'
p5720
tp5721
atRp5722
sS'20169779'
p5723
g3
((lp5724
(S'D015632'
p5725
S'D020734'
p5726
tp5727
a(S'D007980'
p5728
S'D004409'
p5729
tp5730
atRp5731
sS'573555'
p5732
g3
((lp5733
(S'D011433'
p5734
S'D005317'
p5735
tp5736
atRp5737
sS'10975596'
p5738
g3
((lp5739
(S'D007545'
p5740
S'D013610'
p5741
tp5742
atRp5743
sS'15953230'
p5744
g3
((lp5745
(S'C012052'
p5746
S'D008133'
p5747
tp5748
a(S'C012052'
p5749
S'D006996'
p5750
tp5751
atRp5752
sS'12498738'
p5753
g3
((lp5754
(S'D004317'
p5755
S'D009202'
p5756
tp5757
atRp5758
sS'24671324'
p5759
g3
((lp5760
(S'D003907'
p5761
S'D019115'
p5762
tp5763
a(S'C400082'
p5764
S'D019115'
p5765
tp5766
atRp5767
sS'146391'
p5768
g3
((lp5769
(S'D010672'
p5770
S'D012010'
p5771
tp5772
a(S'D010672'
p5773
S'D008206'
p5774
tp5775
a(S'D010672'
p5776
S'D003875'
p5777
tp5778
atRp5779
sS'12752472'
p5780
g3
((lp5781
(S'D010862'
p5782
S'D004827'
p5783
tp5784
atRp5785
sS'24691439'
p5786
g3
((lp5787
(S'D003907'
p5788
S'D009798'
p5789
tp5790
a(S'D003907'
p5791
S'D009410'
p5792
tp5793
a(S'D003907'
p5794
S'D005901'
p5795
tp5796
atRp5797
sS'19263707'
p5798
g3
((lp5799
(S'D002231'
p5800
S'D056648'
p5801
tp5802
a(S'D002231'
p5803
S'D001168'
p5804
tp5805
a(S'D002231'
p5806
S'D010309'
p5807
tp5808
a(S'D002231'
p5809
S'D005334'
p5810
tp5811
a(S'D013956'
p5812
S'D001168'
p5813
tp5814
a(S'D013956'
p5815
S'D010309'
p5816
tp5817
a(S'D013956'
p5818
S'D056648'
p5819
tp5820
a(S'D013956'
p5821
S'D005334'
p5822
tp5823
atRp5824
sS'891494'
p5825
g3
((lp5826
(S'D010672'
p5827
S'D001927'
p5828
tp5829
atRp5830
sS'10677406'
p5831
g3
((lp5832
(S'D004280'
p5833
S'D018487'
p5834
tp5835
a(S'D004280'
p5836
S'D017682'
p5837
tp5838
atRp5839
sS'16880771'
p5840
g3
((lp5841
(S'D010479'
p5842
S'D007859'
p5843
tp5844
atRp5845
sS'17151160'
p5846
g3
((lp5847
(S'D018967'
p5848
S'D015430'
p5849
tp5850
a(S'D018967'
p5851
S'D001480'
p5852
tp5853
a(S'C076029'
p5854
S'D015430'
p5855
tp5856
a(S'C076029'
p5857
S'D001480'
p5858
tp5859
atRp5860
sS'12948256'
p5861
g3
((lp5862
(S'D004977'
p5863
S'D009901'
p5864
tp5865
atRp5866
sS'2239937'
p5867
g3
((lp5868
(S'D002119'
p5869
S'D006934'
p5870
tp5871
atRp5872
sS'11439380'
p5873
g3
((lp5874
(S'D013792'
p5875
S'D010523'
p5876
tp5877
atRp5878
sS'1158089'
p5879
g3
((lp5880
(S'D013752'
p5881
S'D005234'
p5882
tp5883
atRp5884
sS'1451544'
p5885
g3
((lp5886
(S'D017275'
p5887
S'D004244'
p5888
tp5889
a(S'D017275'
p5890
S'D006261'
p5891
tp5892
a(S'D017275'
p5893
S'D005483'
p5894
tp5895
atRp5896
sS'24345882'
p5897
g3
((lp5898
(S'D008727'
p5899
S'D003072'
p5900
tp5901
a(S'D008727'
p5902
S'D056784'
p5903
tp5904
atRp5905
sS'8160791'
p5906
g3
((lp5907
(S'D005839'
p5908
S'D007674'
p5909
tp5910
atRp5911
sS'2767010'
p5912
g3
((lp5913
(S'D010042'
p5914
S'D017180'
p5915
tp5916
a(S'D013327'
p5917
S'D001145'
p5918
tp5919
atRp5920
sS'24709919'
p5921
g3
((lp5922
(S'D009020'
p5923
S'D006930'
p5924
tp5925
atRp5926
sS'3109094'
p5927
g3
((lp5928
(S'D003520'
p5929
S'D001745'
p5930
tp5931
atRp5932
sS'16323982'
p5933
g3
((lp5934
(S'D017373'
p5935
S'D050171'
p5936
tp5937
a(S'D017373'
p5938
S'D003324'
p5939
tp5940
atRp5941
sS'11026989'
p5942
g3
((lp5943
(S'D014331'
p5944
S'D015878'
p5945
tp5946
atRp5947
sS'24802403'
p5948
g3
((lp5949
(S'D010433'
p5950
S'D003072'
p5951
tp5952
a(S'D010433'
p5953
S'D012640'
p5954
tp5955
a(S'D010433'
p5956
S'D007859'
p5957
tp5958
a(S'D010433'
p5959
S'D008569'
p5960
tp5961
atRp5962
sS'9197951'
p5963
g3
((lp5964
(S'D004053'
p5965
S'D001714'
p5966
tp5967
atRp5968
sS'24653743'
p5969
g3
((lp5970
(S'C042288'
p5971
S'D016757'
p5972
tp5973
a(S'C042288'
p5974
S'D016171'
p5975
tp5976
atRp5977
sS'11395263'
p5978
g3
((lp5979
(S'D007545'
p5980
S'D009203'
p5981
tp5982
atRp5983
sS'2131034'
p5984
g3
((lp5985
(S'D013852'
p5986
S'D020258'
p5987
tp5988
a(S'D003561'
p5989
S'D020258'
p5990
tp5991
a(S'D008727'
p5992
S'D011115'
p5993
tp5994
a(S'D003561'
p5995
S'D011115'
p5996
tp5997
a(S'D013852'
p5998
S'D011115'
p5999
tp6000
a(S'D008727'
p6001
S'D020258'
p6002
tp6003
atRp6004
sS'11299446'
p6005
g3
((lp6006
(S'C027429'
p6007
S'D010302'
p6008
tp6009
atRp6010
sS'17879217'
p6011
g3
((lp6012
(S'D012293'
p6013
S'D058186'
p6014
tp6015
a(S'D012293'
p6016
S'D005921'
p6017
tp6018
atRp6019
sS'19447152'
p6020
g3
((lp6021
(S'D010042'
p6022
S'D001714'
p6023
tp6024
atRp6025
sS'14616590'
p6026
g3
((lp6027
(S'D015742'
p6028
S'D010146'
p6029
tp6030
a(S'D015742'
p6031
S'D013924'
p6032
tp6033
atRp6034
sS'17351238'
p6035
g3
((lp6036
(S'D005996'
p6037
S'D007022'
p6038
tp6039
a(S'D010100'
p6040
S'D007022'
p6041
tp6042
atRp6043
sS'8184922'
p6044
g3
((lp6045
(S'D007545'
p6046
S'D006332'
p6047
tp6048
atRp6049
sS'2765447'
p6050
g3
((lp6051
(S'D019793'
p6052
S'D004830'
p6053
tp6054
atRp6055
sS'24091473'
p6056
g3
((lp6057
(S'C476513'
p6058
S'D002318'
p6059
tp6060
atRp6061
sS'24894748'
p6062
g3
((lp6063
(S'C041359'
p6064
S'D001919'
p6065
tp6066
a(S'D008790'
p6067
S'D001919'
p6068
tp6069
atRp6070
sS'19154241'
p6071
g3
((lp6072
(S'D008094'
p6073
S'D006961'
p6074
tp6075
a(S'D008094'
p6076
S'D006934'
p6077
tp6078
atRp6079
sS'19728177'
p6080
g3
((lp6081
(S'D000082'
p6082
S'D017114'
p6083
tp6084
a(S'D000082'
p6085
S'D001929'
p6086
tp6087
a(S'D000082'
p6088
S'D019586'
p6089
tp6090
atRp6091
sS'7739955'
p6092
g3
((lp6093
(S'D002220'
p6094
S'D004802'
p6095
tp6096
a(S'D002220'
p6097
S'D009205'
p6098
tp6099
atRp6100
sS'3289726'
p6101
g3
((lp6102
(S'D005047'
p6103
S'D003221'
p6104
tp6105
a(S'D005047'
p6106
S'D010211'
p6107
tp6108
a(S'D005047'
p6109
S'D012640'
p6110
tp6111
atRp6112
sS'16876986'
p6113
g3
((lp6114
(S'D010862'
p6115
S'D013226'
p6116
tp6117
a(S'D010862'
p6118
S'D012640'
p6119
tp6120
atRp6121
sS'24675088'
p6122
g3
((lp6123
(S'D004317'
p6124
S'D018487'
p6125
tp6126
a(S'D004317'
p6127
S'D009202'
p6128
tp6129
a(S'D004317'
p6130
S'D005355'
p6131
tp6132
atRp6133
sS'17879100'
p6134
g3
((lp6135
(S'D007052'
p6136
S'D009395'
p6137
tp6138
a(S'D007052'
p6139
S'D058186'
p6140
tp6141
atRp6142
sS'8748050'
p6143
g3
((lp6144
(S'D000639'
p6145
S'D001927'
p6146
tp6147
atRp6148
sS'9725303'
p6149
g3
((lp6150
(S'D019469'
p6151
S'D014514'
p6152
tp6153
atRp6154
sS'20034406'
p6155
g3
((lp6156
(S'D010862'
p6157
S'D013226'
p6158
tp6159
atRp6160
sS'8511251'
p6161
g3
((lp6162
(S'D003042'
p6163
S'D017202'
p6164
tp6165
a(S'D003042'
p6166
S'D003329'
p6167
tp6168
atRp6169
sS'3084231'
p6170
g3
((lp6171
(S'D014635'
p6172
S'D003704'
p6173
tp6174
a(S'D014635'
p6175
S'D022124'
p6176
tp6177
atRp6178
sS'24999722'
p6179
g3
((lp6180
(S'D005446'
p6181
S'D002386'
p6182
tp6183
a(S'D005446'
p6184
S'D009798'
p6185
tp6186
atRp6187
sS'9881641'
p6188
g3
((lp6189
(S'C040442'
p6190
S'D007022'
p6191
tp6192
a(S'D019806'
p6193
S'D007022'
p6194
tp6195
a(S'D000109'
p6196
S'D007022'
p6197
tp6198
atRp6199
sS'20513036'
p6200
g3
((lp6201
(S'C542870'
p6202
S'D014826'
p6203
tp6204
atRp6205
sS'2650911'
p6206
g3
((lp6207
(S'D004054'
p6208
S'D002292'
p6209
tp6210
atRp6211
sS'2083961'
p6212
g3
((lp6213
(S'D012293'
p6214
S'D058186'
p6215
tp6216
atRp6217
sS'7477981'
p6218
g3
((lp6219
(S'D001058'
p6220
S'D004409'
p6221
tp6222
a(S'D005473'
p6223
S'D004409'
p6224
tp6225
atRp6226
sS'3798047'
p6227
g3
((lp6228
(S'D008775'
p6229
S'D001919'
p6230
tp6231
atRp6232
sS'24451297'
p6233
g3
((lp6234
(S'C065180'
p6235
S'D000855'
p6236
tp6237
a(S'C065180'
p6238
S'D009325'
p6239
tp6240
a(S'C065180'
p6241
S'D056486'
p6242
tp6243
a(S'C065180'
p6244
S'D015746'
p6245
tp6246
atRp6247
sS'10087562'
p6248
g3
((lp6249
(S'D004280'
p6250
S'D016171'
p6251
tp6252
atRp6253
sS'1943082'
p6254
g3
((lp6255
(S'D019803'
p6256
S'D015427'
p6257
tp6258
atRp6259
sS'17028363'
p6260
g3
((lp6261
(S'D004365'
p6262
S'D058186'
p6263
tp6264
a(S'D004008'
p6265
S'D058186'
p6266
tp6267
atRp6268
sS'1760851'
p6269
g3
((lp6270
(S'D004317'
p6271
S'D066126'
p6272
tp6273
atRp6274
sS'9272404'
p6275
g3
((lp6276
(S'D007052'
p6277
S'D010146'
p6278
tp6279
atRp6280
sS'3925479'
p6281
g3
((lp6282
(S'D006220'
p6283
S'D002375'
p6284
tp6285
a(S'D010862'
p6286
S'D002375'
p6287
tp6288
atRp6289
sS'11105626'
p6290
g3
((lp6291
(S'D015474'
p6292
S'D065817'
p6293
tp6294
a(S'D015474'
p6295
S'C535670'
p6296
tp6297
a(S'D015474'
p6298
S'D004310'
p6299
tp6300
atRp6301
sS'16565833'
p6302
g3
((lp6303
(S'D004317'
p6304
S'D009202'
p6305
tp6306
atRp6307
sS'6631522'
p6308
g3
((lp6309
(S'D004317'
p6310
S'D066126'
p6311
tp6312
atRp6313
sS'8957205'
p6314
g3
((lp6315
(S'D002245'
p6316
S'D006935'
p6317
tp6318
atRp6319
sS'2484903'
p6320
g3
((lp6321
(S'D011441'
p6322
S'D008180'
p6323
tp6324
a(S'D008713'
p6325
S'D047508'
p6326
tp6327
a(S'D011441'
p6328
S'D056486'
p6329
tp6330
atRp6331
sS'11745287'
p6332
g3
((lp6333
(S'D004317'
p6334
S'D014839'
p6335
tp6336
a(S'D004317'
p6337
S'D012871'
p6338
tp6339
a(S'D004317'
p6340
S'D013921'
p6341
tp6342
a(S'D016190'
p6343
S'D052016'
p6344
tp6345
a(S'D016190'
p6346
S'D009325'
p6347
tp6348
a(S'D004317'
p6349
S'D000740'
p6350
tp6351
a(S'D004317'
p6352
S'D009503'
p6353
tp6354
a(S'D004317'
p6355
S'D009325'
p6356
tp6357
a(S'D004317'
p6358
S'D005221'
p6359
tp6360
a(S'D004317'
p6361
S'D015431'
p6362
tp6363
a(S'D016190'
p6364
S'D012871'
p6365
tp6366
a(S'D016190'
p6367
S'D005221'
p6368
tp6369
a(S'D016190'
p6370
S'D014839'
p6371
tp6372
a(S'D016190'
p6373
S'D000740'
p6374
tp6375
a(S'D016190'
p6376
S'D013921'
p6377
tp6378
a(S'D004317'
p6379
S'D003248'
p6380
tp6381
a(S'D004317'
p6382
S'D052016'
p6383
tp6384
a(S'D016190'
p6385
S'D009503'
p6386
tp6387
a(S'D016190'
p6388
S'D003248'
p6389
tp6390
a(S'D016190'
p6391
S'D015431'
p6392
tp6393
atRp6394
sS'7173007'
p6395
g3
((lp6396
(S'C025504'
p6397
S'D004244'
p6398
tp6399
a(S'C006753'
p6400
S'D015746'
p6401
tp6402
a(S'C025504'
p6403
S'D009325'
p6404
tp6405
atRp6406
sS'16369751'
p6407
g3
((lp6408
(S'D005472'
p6409
S'D002037'
p6410
tp6411
a(S'D005472'
p6412
S'D002637'
p6413
tp6414
atRp6415
sS'439781'
p6416
g3
((lp6417
(S'D007213'
p6418
S'D007022'
p6419
tp6420
atRp6421
sS'6316193'
p6422
g3
((lp6423
(S'D010852'
p6424
S'D012640'
p6425
tp6426
atRp6427
sS'15815446'
p6428
g3
((lp6429
(S'D010656'
p6430
S'D006973'
p6431
tp6432
atRp6433
sS'17828434'
p6434
g3
((lp6435
(S'D010862'
p6436
S'D012640'
p6437
tp6438
atRp6439
sS'16867246'
p6440
g3
((lp6441
(S'D002746'
p6442
S'D001480'
p6443
tp6444
atRp6445
sS'25041770'
p6446
g3
((lp6447
(S'D017291'
p6448
S'D012206'
p6449
tp6450
a(S'D019821'
p6451
S'D012206'
p6452
tp6453
atRp6454
sS'10427794'
p6455
g3
((lp6456
(S'C065757'
p6457
S'D056486'
p6458
tp6459
a(S'C065757'
p6460
S'D004342'
p6461
tp6462
atRp6463
sS'11135381'
p6464
g3
((lp6465
(S'D008729'
p6466
S'D006261'
p6467
tp6468
a(S'D008729'
p6469
S'D006973'
p6470
tp6471
atRp6472
sS'3423103'
p6473
g3
((lp6474
(S'D003000'
p6475
S'D001919'
p6476
tp6477
a(S'D003000'
p6478
S'D007022'
p6479
tp6480
atRp6481
sS'19531695'
p6482
g3
((lp6483
(S'D005424'
p6484
S'D003693'
p6485
tp6486
a(S'D017374'
p6487
S'D003693'
p6488
tp6489
atRp6490
sS'18341442'
p6491
g3
((lp6492
(S'C026098'
p6493
S'D053609'
p6494
tp6495
atRp6496
sS'24641119'
p6497
g3
((lp6498
(S'D007654'
p6499
S'D003875'
p6500
tp6501
atRp6502
sS'7727612'
p6503
g3
((lp6504
(S'D008140'
p6505
S'D009207'
p6506
tp6507
atRp6508
sS'6615679'
p6509
g3
((lp6510
(S'D013999'
p6511
S'D001919'
p6512
tp6513
a(S'D010862'
p6514
S'D001919'
p6515
tp6516
a(S'D013999'
p6517
S'D007022'
p6518
tp6519
a(S'D010862'
p6520
S'D007022'
p6521
tp6522
atRp6523
sS'24220752'
p6524
g3
((lp6525
(S'C051890'
p6526
S'D007674'
p6527
tp6528
a(S'D003287'
p6529
S'D007674'
p6530
tp6531
atRp6532
sS'9158667'
p6533
g3
((lp6534
(S'D014212'
p6535
S'D058186'
p6536
tp6537
a(S'D014212'
p6538
S'D013927'
p6539
tp6540
atRp6541
sS'24100257'
p6542
g3
((lp6543
(S'C089750'
p6544
S'D003329'
p6545
tp6546
a(S'C089750'
p6547
S'D054549'
p6548
tp6549
atRp6550
sS'1655018'
p6551
g3
((lp6552
(S'D000728'
p6553
S'D010382'
p6554
tp6555
a(S'D000305'
p6556
S'D006528'
p6557
tp6558
a(S'D000728'
p6559
S'D006528'
p6560
tp6561
a(S'D000305'
p6562
S'D010382'
p6563
tp6564
atRp6565
sS'17379047'
p6566
g3
((lp6567
(S'D006852'
p6568
S'D007008'
p6569
tp6570
atRp6571
sS'3895875'
p6572
g3
((lp6573
(S'D008012'
p6574
S'D007022'
p6575
tp6576
atRp6577
sS'23864035'
p6578
g3
((lp6579
(S'D003907'
p6580
S'D010523'
p6581
tp6582
a(S'C400082'
p6583
S'D010523'
p6584
tp6585
atRp6586
sS'1360900'
p6587
g3
((lp6588
(S'D004976'
p6589
S'D012640'
p6590
tp6591
atRp6592
sS'7315949'
p6593
g3
((lp6594
(S'D009638'
p6595
S'D013035'
p6596
tp6597
atRp6598
sS'24068571'
p6599
g3
((lp6600
(S'D013874'
p6601
S'D011183'
p6602
tp6603
a(S'D013874'
p6604
S'D003693'
p6605
tp6606
atRp6607
sS'25031906'
p6608
g3
((lp6609
(S'D017311'
p6610
S'D004408'
p6611
tp6612
atRp6613
sS'24209900'
p6614
g3
((lp6615
(S'D007069'
p6616
S'D012640'
p6617
tp6618
a(S'D007069'
p6619
S'D013226'
p6620
tp6621
atRp6622
sS'2933998'
p6623
g3
((lp6624
(S'D017265'
p6625
S'D014202'
p6626
tp6627
atRp6628
sS'25907210'
p6629
g3
((lp6630
(S'D003976'
p6631
S'D008175'
p6632
tp6633
atRp6634
sS'25986755'
p6635
g3
((lp6636
(S'D002110'
p6637
S'D005317'
p6638
tp6639
a(S'D002110'
p6640
S'D005355'
p6641
tp6642
a(S'D002110'
p6643
S'D007674'
p6644
tp6645
atRp6646
sS'9782254'
p6647
g3
((lp6648
(S'D007980'
p6649
S'D004409'
p6650
tp6651
atRp6652
sS'24283660'
p6653
g3
((lp6654
(S'D016559'
p6655
S'D012640'
p6656
tp6657
atRp6658
sS'7411769'
p6659
g3
((lp6660
(S'D007213'
p6661
S'D051437'
p6662
tp6663
a(S'D007213'
p6664
S'D006947'
p6665
tp6666
atRp6667
sS'19392810'
p6668
g3
((lp6669
(S'D008691'
p6670
S'D020521'
p6671
tp6672
a(S'D008691'
p6673
S'D012206'
p6674
tp6675
a(S'D003932'
p6676
S'D020521'
p6677
tp6678
a(S'D003932'
p6679
S'D012206'
p6680
tp6681
atRp6682
sS'1449452'
p6683
g3
((lp6684
(S'D004077'
p6685
S'D001145'
p6686
tp6687
atRp6688
sS'10219427'
p6689
g3
((lp6690
(S'D003287'
p6691
S'D014474'
p6692
tp6693
a(S'D003287'
p6694
S'D004417'
p6695
tp6696
a(S'D003287'
p6697
S'D003875'
p6698
tp6699
a(S'D003287'
p6700
S'D010146'
p6701
tp6702
atRp6703
sS'24727461'
p6704
g3
((lp6705
(S'D004317'
p6706
S'D006331'
p6707
tp6708
atRp6709
sS'26115410'
p6710
g3
((lp6711
(S'D001152'
p6712
S'D009369'
p6713
tp6714
atRp6715
sS'24072398'
p6716
g3
((lp6717
(S'D008694'
p6718
S'D003866'
p6719
tp6720
atRp6721
sS'25080425'
p6722
g3
((lp6723
(S'D007545'
p6724
S'D017202'
p6725
tp6726
a(S'D007545'
p6727
S'D020257'
p6728
tp6729
atRp6730
sS'9061777'
p6731
g3
((lp6732
(S'D010862'
p6733
S'D013226'
p6734
tp6735
a(S'D010862'
p6736
S'D012640'
p6737
tp6738
a(S'D010862'
p6739
S'D009410'
p6740
tp6741
a(S'D016291'
p6742
S'D012640'
p6743
tp6744
atRp6745
sS'3409843'
p6746
g3
((lp6747
(S'D002220'
p6748
S'D000741'
p6749
tp6750
atRp6751
sS'15366550'
p6752
g3
((lp6753
(S'D008094'
p6754
S'D018500'
p6755
tp6756
atRp6757
sS'1117341'
p6758
g3
((lp6759
(S'D015119'
p6760
S'D006943'
p6761
tp6762
atRp6763
sS'15627798'
p6764
g3
((lp6765
(S'D005839'
p6766
S'D009395'
p6767
tp6768
atRp6769
sS'18450790'
p6770
g3
((lp6771
(S'D013792'
p6772
S'D010292'
p6773
tp6774
a(S'D013792'
p6775
S'D009120'
p6776
tp6777
a(S'D013792'
p6778
S'D010523'
p6779
tp6780
atRp6781
sS'12165618'
p6782
g3
((lp6783
(S'D019469'
p6784
S'D007674'
p6785
tp6786
a(S'D019469'
p6787
S'D006417'
p6788
tp6789
atRp6790
sS'7176945'
p6791
g3
((lp6792
(S'D013390'
p6793
S'D010146'
p6794
tp6795
a(S'D013390'
p6796
S'D005207'
p6797
tp6798
atRp6799
sS'24595967'
p6800
g3
((lp6801
(S'D018817'
p6802
S'D012893'
p6803
tp6804
a(S'D018817'
p6805
S'D008569'
p6806
tp6807
atRp6808
sS'1779253'
p6809
g3
((lp6810
(S'D002211'
p6811
S'D010146'
p6812
tp6813
a(S'D002211'
p6814
S'D008413'
p6815
tp6816
atRp6817
sS'3088653'
p6818
g3
((lp6819
(S'D012601'
p6820
S'D000647'
p6821
tp6822
atRp6823
sS'3833372'
p6824
g3
((lp6825
(S'D013999'
p6826
S'D005221'
p6827
tp6828
a(S'D013999'
p6829
S'D004244'
p6830
tp6831
a(S'D013999'
p6832
S'D018908'
p6833
tp6834
a(S'D006852'
p6835
S'D004244'
p6836
tp6837
a(S'D006852'
p6838
S'D005221'
p6839
tp6840
a(S'D006852'
p6841
S'D018908'
p6842
tp6843
atRp6844
sS'9578276'
p6845
g3
((lp6846
(S'C020731'
p6847
S'D018457'
p6848
tp6849
a(S'C020731'
p6850
S'D006973'
p6851
tp6852
a(S'C020731'
p6853
S'D007022'
p6854
tp6855
a(S'C020731'
p6856
S'D006473'
p6857
tp6858
a(S'C020731'
p6859
S'D014839'
p6860
tp6861
a(S'C020731'
p6862
S'D015746'
p6863
tp6864
atRp6865
sS'12828076'
p6866
g3
((lp6867
(S'D000082'
p6868
S'D017114'
p6869
tp6870
atRp6871
sS'6453500'
p6872
g3
((lp6873
(S'D004221'
p6874
S'D056486'
p6875
tp6876
atRp6877
sS'1556529'
p6878
g3
((lp6879
(S'D015215'
p6880
S'D056486'
p6881
tp6882
atRp6883
sS'7492040'
p6884
g3
((lp6885
(S'D003042'
p6886
S'D009203'
p6887
tp6888
atRp6889
sS'2710809'
p6890
g3
((lp6891
(S'D001712'
p6892
S'D003680'
p6893
tp6894
a(S'D001712'
p6895
S'D004401'
p6896
tp6897
a(S'D001712'
p6898
S'D001919'
p6899
tp6900
atRp6901
sS'6985498'
p6902
g3
((lp6903
(S'D008733'
p6904
S'D000141'
p6905
tp6906
a(S'D008733'
p6907
S'D056486'
p6908
tp6909
atRp6910
sS'24733133'
p6911
g3
((lp6912
(S'D006493'
p6913
S'D020246'
p6914
tp6915
a(S'D006493'
p6916
S'D013921'
p6917
tp6918
a(S'D006493'
p6919
S'D011655'
p6920
tp6921
atRp6922
sS'10764869'
p6923
g3
((lp6924
(S'D016559'
p6925
S'D009901'
p6926
tp6927
atRp6928
sS'89511'
p6929
g3
((lp6930
(S'D004967'
p6931
S'D006965'
p6932
tp6933
atRp6934
sS'24658375'
p6935
g3
((lp6936
(S'D014212'
p6937
S'D009220'
p6938
tp6939
atRp6940
sS'17356399'
p6941
g3
((lp6942
(S'D014750'
p6943
S'D018908'
p6944
tp6945
a(S'C042705'
p6946
S'D001037'
p6947
tp6948
a(S'D003907'
p6949
S'D018908'
p6950
tp6951
a(S'D003907'
p6952
S'D006212'
p6953
tp6954
a(S'C042705'
p6955
S'D014549'
p6956
tp6957
a(S'D014750'
p6958
S'D001037'
p6959
tp6960
a(S'D003561'
p6961
S'D014549'
p6962
tp6963
a(S'D003907'
p6964
S'D020301'
p6965
tp6966
a(S'D003561'
p6967
S'D001037'
p6968
tp6969
a(S'C042705'
p6970
S'D018908'
p6971
tp6972
a(S'D014750'
p6973
S'D014549'
p6974
tp6975
a(S'D003907'
p6976
S'D014549'
p6977
tp6978
a(S'D003561'
p6979
S'D020301'
p6980
tp6981
a(S'D003907'
p6982
S'D001037'
p6983
tp6984
a(S'D003561'
p6985
S'D006212'
p6986
tp6987
a(S'C042705'
p6988
S'D020301'
p6989
tp6990
a(S'D014750'
p6991
S'D020301'
p6992
tp6993
a(S'C042705'
p6994
S'D006212'
p6995
tp6996
a(S'D003561'
p6997
S'D018908'
p6998
tp6999
a(S'D014750'
p7000
S'D006212'
p7001
tp7002
atRp7003
sS'1615846'
p7004
g3
((lp7005
(S'D015248'
p7006
S'D009220'
p7007
tp7008
a(S'D008148'
p7009
S'D009220'
p7010
tp7011
atRp7012
sS'10510854'
p7013
g3
((lp7014
(S'D006220'
p7015
S'D002375'
p7016
tp7017
atRp7018
sS'15882284'
p7019
g3
((lp7020
(S'D001241'
p7021
S'D007676'
p7022
tp7023
atRp7024
sS'9570197'
p7025
g3
((lp7026
(S'D003042'
p7027
S'D018487'
p7028
tp7029
atRp7030
sS'6893265'
p7031
g3
((lp7032
(S'D011441'
p7033
S'D056486'
p7034
tp7035
a(S'D011441'
p7036
S'D006521'
p7037
tp7038
atRp7039
sS'12912689'
p7040
g3
((lp7041
(S'D016190'
p7042
S'D005355'
p7043
tp7044
a(S'D016190'
p7045
S'D015835'
p7046
tp7047
atRp7048
sS'3074291'
p7049
g3
((lp7050
(S'D013806'
p7051
S'D014202'
p7052
tp7053
a(S'D013806'
p7054
S'D014839'
p7055
tp7056
a(S'D013806'
p7057
S'D009325'
p7058
tp7059
atRp7060
sS'11799346'
p7061
g3
((lp7062
(S'D015242'
p7063
S'D001714'
p7064
tp7065
a(S'D008795'
p7066
S'D001714'
p7067
tp7068
a(S'D015662'
p7069
S'D001714'
p7070
tp7071
a(S'D000658'
p7072
S'D001714'
p7073
tp7074
a(S'D007538'
p7075
S'D001714'
p7076
tp7077
a(S'D002939'
p7078
S'D001714'
p7079
tp7080
a(S'D017291'
p7081
S'D001714'
p7082
tp7083
a(S'D004917'
p7084
S'D001714'
p7085
tp7086
atRp7087
sS'6517710'
p7088
g3
((lp7089
(S'D011796'
p7090
S'D003328'
p7091
tp7092
a(S'D011796'
p7093
S'D006332'
p7094
tp7095
atRp7096
sS'24341598'
p7097
g3
((lp7098
(S'D003287'
p7099
S'D058186'
p7100
tp7101
atRp7102
sS'24284476'
p7103
g3
((lp7104
(S'D012601'
p7105
S'D000647'
p7106
tp7107
atRp7108
sS'2983630'
p7109
g3
((lp7110
(S'D002110'
p7111
S'D001008'
p7112
tp7113
a(S'D002110'
p7114
S'D014202'
p7115
tp7116
a(S'D002110'
p7117
S'D009325'
p7118
tp7119
atRp7120
sS'2173761'
p7121
g3
((lp7122
(S'D020110'
p7123
S'D013610'
p7124
tp7125
a(S'D019806'
p7126
S'D013610'
p7127
tp7128
a(S'D019806'
p7129
S'D007022'
p7130
tp7131
a(S'D020110'
p7132
S'D007022'
p7133
tp7134
atRp7135
sS'15276093'
p7136
g3
((lp7137
(S'C451780'
p7138
S'D005483'
p7139
tp7140
atRp7141
sS'23892921'
p7142
g3
((lp7143
(S'D003907'
p7144
S'D010523'
p7145
tp7146
a(S'D003907'
p7147
S'D020246'
p7148
tp7149
a(S'C467567'
p7150
S'D010523'
p7151
tp7152
a(S'C467567'
p7153
S'D020246'
p7154
tp7155
a(S'D003907'
p7156
S'D001855'
p7157
tp7158
a(S'C467567'
p7159
S'D001855'
p7160
tp7161
atRp7162
sS'24055495'
p7163
g3
((lp7164
(S'D013311'
p7165
S'D003072'
p7166
tp7167
a(S'D013311'
p7168
S'D000544'
p7169
tp7170
a(S'D005690'
p7171
S'D003072'
p7172
tp7173
a(S'D005947'
p7174
S'D000544'
p7175
tp7176
atRp7177
sS'16112787'
p7178
g3
((lp7179
(S'D014640'
p7180
S'D007674'
p7181
tp7182
atRp7183
sS'6806735'
p7184
g3
((lp7185
(S'C034868'
p7186
S'D007674'
p7187
tp7188
a(S'C034868'
p7189
S'D000740'
p7190
tp7191
a(S'C034868'
p7192
S'D005767'
p7193
tp7194
atRp7195
sS'3864191'
p7196
g3
((lp7197
(S'D001241'
p7198
S'D007674'
p7199
tp7200
atRp7201
sS'25951420'
p7202
g3
((lp7203
(S'D052638'
p7204
S'D010300'
p7205
tp7206
a(S'D010126'
p7207
S'D010300'
p7208
tp7209
atRp7210
sS'12559315'
p7211
g3
((lp7212
(S'D007213'
p7213
S'D018856'
p7214
tp7215
a(S'D007213'
p7216
S'D008415'
p7217
tp7218
atRp7219
sS'16723784'
p7220
g3
((lp7221
(S'D015764'
p7222
S'D016171'
p7223
tp7224
a(S'D015764'
p7225
S'D004244'
p7226
tp7227
a(S'D015764'
p7228
S'D008133'
p7229
tp7230
a(S'D015764'
p7231
S'D001919'
p7232
tp7233
a(S'D015764'
p7234
S'D005221'
p7235
tp7236
a(S'D011188'
p7237
S'D016171'
p7238
tp7239
atRp7240
sS'24717468'
p7241
g3
((lp7242
(S'D020927'
p7243
S'D007022'
p7244
tp7245
a(S'D015742'
p7246
S'D007022'
p7247
tp7248
a(S'D020927'
p7249
S'D001919'
p7250
tp7251
a(S'D015742'
p7252
S'D001919'
p7253
tp7254
atRp7255
sS'1522360'
p7256
g3
((lp7257
(S'D012293'
p7258
S'D058186'
p7259
tp7260
a(S'D012293'
p7261
S'D006461'
p7262
tp7263
atRp7264
sS'16034922'
p7265
g3
((lp7266
(S'D011374'
p7267
S'D005705'
p7268
tp7269
a(S'D004967'
p7270
S'D001943'
p7271
tp7272
a(S'D011374'
p7273
S'D002318'
p7274
tp7275
a(S'D011374'
p7276
S'D054556'
p7277
tp7278
a(S'D011374'
p7279
S'D020521'
p7280
tp7281
a(S'D011374'
p7282
S'D001943'
p7283
tp7284
a(S'D004967'
p7285
S'D020521'
p7286
tp7287
a(S'D004967'
p7288
S'D003704'
p7289
tp7290
a(S'D004967'
p7291
S'D005705'
p7292
tp7293
a(S'D011374'
p7294
S'D003704'
p7295
tp7296
a(S'D004967'
p7297
S'D054556'
p7298
tp7299
a(S'D004967'
p7300
S'D002318'
p7301
tp7302
atRp7303
sS'2625524'
p7304
g3
((lp7305
(S'D003042'
p7306
S'D012640'
p7307
tp7308
a(S'D000661'
p7309
S'D012640'
p7310
tp7311
atRp7312
sS'25119790'
p7313
g3
((lp7314
(S'C030272'
p7315
S'D009336'
p7316
tp7317
a(S'C030272'
p7318
S'D011507'
p7319
tp7320
a(S'C030272'
p7321
S'D007674'
p7322
tp7323
atRp7324
sS'753803'
p7325
g3
((lp7326
(S'D014810'
p7327
S'D009136'
p7328
tp7329
a(S'D008696'
p7330
S'D009136'
p7331
tp7332
atRp7333
sS'3746148'
p7334
g3
((lp7335
(S'D004176'
p7336
S'D017202'
p7337
tp7338
atRp7339
sS'24840785'
p7340
g3
((lp7341
(S'D000157'
p7342
S'D066126'
p7343
tp7344
a(S'D000157'
p7345
S'D011041'
p7346
tp7347
a(S'D000157'
p7348
S'D001145'
p7349
tp7350
atRp7351
sS'19967075'
p7352
g3
((lp7353
(S'D005839'
p7354
S'D007674'
p7355
tp7356
atRp7357
sS'19920070'
p7358
g3
((lp7359
(S'D010634'
p7360
S'D006529'
p7361
tp7362
atRp7363
sS'24114426'
p7364
g3
((lp7365
(S'D018817'
p7366
S'D003866'
p7367
tp7368
a(S'D018817'
p7369
S'D010554'
p7370
tp7371
a(S'D018817'
p7372
S'D020920'
p7373
tp7374
atRp7375
sS'9323412'
p7376
g3
((lp7377
(S'D017294'
p7378
S'D003865'
p7379
tp7380
atRp7381
sS'7121659'
p7382
g3
((lp7383
(S'D012293'
p7384
S'D007683'
p7385
tp7386
a(S'D012293'
p7387
S'D013921'
p7388
tp7389
a(S'D012293'
p7390
S'D006461'
p7391
tp7392
atRp7393
sS'20431083'
p7394
g3
((lp7395
(S'D014859'
p7396
S'D002543'
p7397
tp7398
atRp7399
sS'17445520'
p7400
g3
((lp7401
(S'D002110'
p7402
S'D016584'
p7403
tp7404
atRp7405
sS'1420650'
p7406
g3
((lp7407
(S'D008094'
p7408
S'D020820'
p7409
tp7410
a(S'D003024'
p7411
S'D020820'
p7412
tp7413
atRp7414
sS'920167'
p7415
g3
((lp7416
(S'D014859'
p7417
S'D002543'
p7418
tp7419
a(S'D014859'
p7420
S'D006470'
p7421
tp7422
a(S'D014859'
p7423
S'D008171'
p7424
tp7425
a(S'D014859'
p7426
S'D002806'
p7427
tp7428
atRp7429
sS'24928523'
p7430
g3
((lp7431
(S'D013792'
p7432
S'D009503'
p7433
tp7434
a(S'D003907'
p7435
S'D010523'
p7436
tp7437
a(S'D013792'
p7438
S'D010523'
p7439
tp7440
a(S'D013792'
p7441
S'D013921'
p7442
tp7443
a(S'C400082'
p7444
S'D013921'
p7445
tp7446
a(S'C400082'
p7447
S'D009503'
p7448
tp7449
a(S'C400082'
p7450
S'D010523'
p7451
tp7452
a(S'D003907'
p7453
S'D013921'
p7454
tp7455
a(S'D003907'
p7456
S'D009503'
p7457
tp7458
atRp7459
sS'8701013'
p7460
g3
((lp7461
(S'D015738'
p7462
S'D003693'
p7463
tp7464
atRp7465
sS'20495512'
p7466
g3
((lp7467
(S'D006493'
p7468
S'D013921'
p7469
tp7470
a(S'D006493'
p7471
S'D013927'
p7472
tp7473
atRp7474
sS'8825380'
p7475
g3
((lp7476
(S'D011692'
p7477
S'D007674'
p7478
tp7479
atRp7480
sS'3297909'
p7481
g3
((lp7482
(S'D013827'
p7483
S'D002779'
p7484
tp7485
a(S'D013827'
p7486
S'D056486'
p7487
tp7488
atRp7489
sS'19549709'
p7490
g3
((lp7491
(S'C107135'
p7492
S'D005221'
p7493
tp7494
a(S'C107135'
p7495
S'D013280'
p7496
tp7497
a(S'C107135'
p7498
S'D000740'
p7499
tp7500
a(S'C107135'
p7501
S'D004417'
p7502
tp7503
a(S'C107135'
p7504
S'D013921'
p7505
tp7506
atRp7507
sS'19338378'
p7508
g3
((lp7509
(S'C031942'
p7510
S'D006470'
p7511
tp7512
atRp7513
sS'2884595'
p7514
g3
((lp7515
(S'D010567'
p7516
S'D001927'
p7517
tp7518
atRp7519
sS'1395192'
p7520
g3
((lp7521
(S'D001971'
p7522
S'D009203'
p7523
tp7524
atRp7525
sS'3831029'
p7526
g3
((lp7527
(S'D010424'
p7528
S'D006333'
p7529
tp7530
atRp7531
sS'6321816'
p7532
g3
((lp7533
(S'D003900'
p7534
S'D006973'
p7535
tp7536
a(S'D008094'
p7537
S'D003919'
p7538
tp7539
atRp7540
sS'8985298'
p7541
g3
((lp7542
(S'D006514'
p7543
S'D006509'
p7544
tp7545
atRp7546
sS'8312983'
p7547
g3
((lp7548
(S'D005473'
p7549
S'D006948'
p7550
tp7551
a(S'D005473'
p7552
S'D003693'
p7553
tp7554
atRp7555
sS'7378868'
p7556
g3
((lp7557
(S'D013390'
p7558
S'D014313'
p7559
tp7560
a(S'D013390'
p7561
S'D063806'
p7562
tp7563
a(S'D013390'
p7564
S'D001049'
p7565
tp7566
atRp7567
sS'22836123'
p7568
g3
((lp7569
(S'D016559'
p7570
S'D012595'
p7571
tp7572
a(S'D016572'
p7573
S'D057049'
p7574
tp7575
a(S'D000305'
p7576
S'D012595'
p7577
tp7578
atRp7579
sS'18189308'
p7580
g3
((lp7581
(S'D003520'
p7582
S'D003556'
p7583
tp7584
atRp7585
sS'15991002'
p7586
g3
((lp7587
(S'D002110'
p7588
S'D001008'
p7589
tp7590
a(S'D010433'
p7591
S'D001008'
p7592
tp7593
atRp7594
sS'12452552'
p7595
g3
((lp7596
(S'D008728'
p7597
S'D009459'
p7598
tp7599
a(S'D018967'
p7600
S'D009459'
p7601
tp7602
atRp7603
sS'21195121'
p7604
g3
((lp7605
(S'D001556'
p7606
S'D012640'
p7607
tp7608
atRp7609
sS'2904523'
p7610
g3
((lp7611
(S'D004837'
p7612
S'D006973'
p7613
tp7614
atRp7615
sS'1361574'
p7616
g3
((lp7617
(S'D007538'
p7618
S'D012640'
p7619
tp7620
atRp7621
sS'12644816'
p7622
g3
((lp7623
(S'D013792'
p7624
S'D006970'
p7625
tp7626
a(S'D013792'
p7627
S'D003248'
p7628
tp7629
a(S'D013792'
p7630
S'D010523'
p7631
tp7632
a(S'D013792'
p7633
S'D004244'
p7634
tp7635
a(S'D013792'
p7636
S'D005076'
p7637
tp7638
atRp7639
sS'24753331'
p7640
g3
((lp7641
(S'C083440'
p7642
S'D064793'
p7643
tp7644
a(S'C106487'
p7645
S'D006345'
p7646
tp7647
a(S'C083440'
p7648
S'D005317'
p7649
tp7650
a(S'C083440'
p7651
S'D020964'
p7652
tp7653
a(S'C106487'
p7654
S'D020964'
p7655
tp7656
a(S'C083440'
p7657
S'D006345'
p7658
tp7659
a(S'C106487'
p7660
S'D005317'
p7661
tp7662
a(S'C106487'
p7663
S'D064793'
p7664
tp7665
atRp7666
sS'2217015'
p7667
g3
((lp7668
(S'D008528'
p7669
S'D051437'
p7670
tp7671
a(S'D008528'
p7672
S'D009503'
p7673
tp7674
atRp7675
sS'19914299'
p7676
g3
((lp7677
(S'D005472'
p7678
S'D008569'
p7679
tp7680
atRp7681
sS'12699527'
p7682
g3
((lp7683
(S'D013390'
p7684
S'D013035'
p7685
tp7686
atRp7687
sS'612112'
p7688
g3
((lp7689
(S'D005045'
p7690
S'D010146'
p7691
tp7692
a(S'D005045'
p7693
S'D009207'
p7694
tp7695
atRp7696
sS'20447294'
p7697
g3
((lp7698
(S'D002351'
p7699
S'D006930'
p7700
tp7701
a(S'D013311'
p7702
S'D006930'
p7703
tp7704
a(S'D002351'
p7705
S'D007249'
p7706
tp7707
a(S'D013311'
p7708
S'D003929'
p7709
tp7710
atRp7711
sS'12950111'
p7712
g3
((lp7713
(S'D006024'
p7714
S'D006261'
p7715
tp7716
a(S'D006024'
p7717
S'D010612'
p7718
tp7719
atRp7720
sS'12359538'
p7721
g3
((lp7722
(S'D003042'
p7723
S'D009203'
p7724
tp7725
atRp7726
sS'20566328'
p7727
g3
((lp7728
(S'D003042'
p7729
S'D006331'
p7730
tp7731
atRp7732
sS'19681452'
p7733
g3
((lp7734
(S'D003932'
p7735
S'D020520'
p7736
tp7737
a(S'D003042'
p7738
S'D002545'
p7739
tp7740
a(S'D000431'
p7741
S'D020521'
p7742
tp7743
a(S'D000431'
p7744
S'D002544'
p7745
tp7746
atRp7747
sS'24664478'
p7748
g3
((lp7749
(S'C104457'
p7750
S'D010523'
p7751
tp7752
atRp7753
sS'6106951'
p7754
g3
((lp7755
(S'D010433'
p7756
S'D012640'
p7757
tp7758
a(S'D005479'
p7759
S'D012640'
p7760
tp7761
atRp7762
sS'611664'
p7763
g3
((lp7764
(S'D011433'
p7765
S'D006973'
p7766
tp7767
atRp7768
sS'11915580'
p7769
g3
((lp7770
(S'D005996'
p7771
S'D006261'
p7772
tp7773
atRp7774
sS'19815465'
p7775
g3
((lp7776
(S'D020888'
p7777
S'D012164'
p7778
tp7779
a(S'D020888'
p7780
S'D014786'
p7781
tp7782
atRp7783
sS'24588023'
p7784
g3
((lp7785
(S'D014148'
p7786
S'D012640'
p7787
tp7788
atRp7789
sS'256433'
p7790
g3
((lp7791
(S'D002228'
p7792
S'D053099'
p7793
tp7794
a(S'D014031'
p7795
S'D053099'
p7796
tp7797
atRp7798
sS'11401944'
p7799
g3
((lp7800
(S'D013015'
p7801
S'D016171'
p7802
tp7803
a(S'D013015'
p7804
S'D008133'
p7805
tp7806
atRp7807
sS'23433219'
p7808
g3
((lp7809
(S'D008694'
p7810
S'D001714'
p7811
tp7812
a(S'D008694'
p7813
S'D000987'
p7814
tp7815
a(S'D008694'
p7816
S'D011605'
p7817
tp7818
atRp7819
sS'16920333'
p7820
g3
((lp7821
(S'D010852'
p7822
S'D012640'
p7823
tp7824
atRp7825
sS'24618873'
p7826
g3
((lp7827
(S'D008614'
p7828
S'D004401'
p7829
tp7830
a(S'C002752'
p7831
S'D012640'
p7832
tp7833
a(S'D008614'
p7834
S'D002524'
p7835
tp7836
a(S'D008614'
p7837
S'D009325'
p7838
tp7839
a(S'D008614'
p7840
S'D014839'
p7841
tp7842
a(S'D008614'
p7843
S'D007022'
p7844
tp7845
atRp7846
sS'24275640'
p7847
g3
((lp7848
(S'D004317'
p7849
S'D066126'
p7850
tp7851
a(S'D004317'
p7852
S'D009336'
p7853
tp7854
atRp7855
sS'1423336'
p7856
g3
((lp7857
(S'D007980'
p7858
S'D007022'
p7859
tp7860
atRp7861
sS'11988250'
p7862
g3
((lp7863
(S'D007052'
p7864
S'D006976'
p7865
tp7866
a(S'D007052'
p7867
S'D000860'
p7868
tp7869
atRp7870
sS'9132810'
p7871
g3
((lp7872
(S'D008727'
p7873
S'D056784'
p7874
tp7875
a(S'D008727'
p7876
S'D003711'
p7877
tp7878
a(S'D008727'
p7879
S'D009336'
p7880
tp7881
atRp7882
sS'8318674'
p7883
g3
((lp7884
(S'D003561'
p7885
S'D003967'
p7886
tp7887
a(S'D003561'
p7888
S'D000138'
p7889
tp7890
a(S'D003561'
p7891
S'D007964'
p7892
tp7893
a(S'D003561'
p7894
S'D011654'
p7895
tp7896
a(S'D003561'
p7897
S'D012769'
p7898
tp7899
a(S'D003561'
p7900
S'D005334'
p7901
tp7902
a(S'D003561'
p7903
S'D015430'
p7904
tp7905
a(S'D003561'
p7906
S'D058186'
p7907
tp7908
atRp7909
sS'6585590'
p7910
g3
((lp7911
(S'D004317'
p7912
S'D006876'
p7913
tp7914
a(S'D004317'
p7915
S'D001201'
p7916
tp7917
a(S'D004317'
p7918
S'D000419'
p7919
tp7920
atRp7921
sS'24234943'
p7922
g3
((lp7923
(S'C086816'
p7924
S'D001008'
p7925
tp7926
a(S'C086816'
p7927
S'D009325'
p7928
tp7929
a(S'C086816'
p7930
S'D007010'
p7931
tp7932
a(S'C086816'
p7933
S'D003221'
p7934
tp7935
a(S'C086816'
p7936
S'D007177'
p7937
tp7938
atRp7939
sS'16309808'
p7940
g3
((lp7941
(S'C035133'
p7942
S'D012148'
p7943
tp7944
atRp7945
sS'1858969'
p7946
g3
((lp7947
(S'D004049'
p7948
S'D004660'
p7949
tp7950
atRp7951
sS'7018927'
p7952
g3
((lp7953
(S'D006220'
p7954
S'D006966'
p7955
tp7956
atRp7957
sS'3711722'
p7958
g3
((lp7959
(S'D004317'
p7960
S'D006333'
p7961
tp7962
a(S'D003035'
p7963
S'D009202'
p7964
tp7965
atRp7966
sS'17384765'
p7967
g3
((lp7968
(S'D004113'
p7969
S'D003072'
p7970
tp7971
a(S'D007854'
p7972
S'D019958'
p7973
tp7974
a(S'D007854'
p7975
S'D007859'
p7976
tp7977
atRp7978
sS'10327032'
p7979
g3
((lp7980
(S'D005472'
p7981
S'D022124'
p7982
tp7983
a(S'D005472'
p7984
S'D001927'
p7985
tp7986
atRp7987
sS'12677626'
p7988
g3
((lp7989
(S'C476513'
p7990
S'D004830'
p7991
tp7992
atRp7993
sS'15605432'
p7994
g3
((lp7995
(S'D004317'
p7996
S'D028361'
p7997
tp7998
atRp7999
sS'20828385'
p8000
g3
((lp8001
(S'C401859'
p8002
S'D009336'
p8003
tp8004
atRp8005
sS'18340638'
p8006
g3
((lp8007
(S'D001379'
p8008
S'D000740'
p8009
tp8010
atRp8011
sS'448423'
p8012
g3
((lp8013
(S'D015119'
p8014
S'D013927'
p8015
tp8016
a(S'D015119'
p8017
S'D020767'
p8018
tp8019
a(S'D015119'
p8020
S'D007674'
p8021
tp8022
a(S'D015119'
p8023
S'D013345'
p8024
tp8025
a(S'D015119'
p8026
S'D006973'
p8027
tp8028
atRp8029
sS'24554916'
p8030
g3
((lp8031
(S'D010758'
p8032
S'D006505'
p8033
tp8034
a(S'D010758'
p8035
S'D017114'
p8036
tp8037
a(S'D010758'
p8038
S'D002779'
p8039
tp8040
atRp8041
sS'11423811'
p8042
g3
((lp8043
(S'D003042'
p8044
S'D002637'
p8045
tp8046
atRp8047
sS'23871786'
p8048
g3
((lp8049
(S'C006780'
p8050
S'D001008'
p8051
tp8052
atRp8053
sS'24309294'
p8054
g3
((lp8055
(S'D009020'
p8056
S'D000647'
p8057
tp8058
atRp8059
sS'1564030'
p8060
g3
((lp8061
(S'D005473'
p8062
S'D001714'
p8063
tp8064
atRp8065
sS'1735570'
p8066
g3
((lp8067
(S'D014294'
p8068
S'D013610'
p8069
tp8070
a(S'D014294'
p8071
S'D007022'
p8072
tp8073
atRp8074
sS'2907577'
p8075
g3
((lp8076
(S'D005839'
p8077
S'D058186'
p8078
tp8079
atRp8080
sS'24665854'
p8081
g3
((lp8082
(S'D014635'
p8083
S'D022124'
p8084
tp8085
a(S'D014635'
p8086
S'D003244'
p8087
tp8088
atRp8089
sS'19293073'
p8090
g3
((lp8091
(S'D001241'
p8092
S'D006471'
p8093
tp8094
a(S'D001241'
p8095
S'D020521'
p8096
tp8097
a(S'D001241'
p8098
S'D020300'
p8099
tp8100
atRp8101
sS'24132704'
p8102
g3
((lp8103
(S'D003976'
p8104
S'D006949'
p8105
tp8106
atRp8107
sS'11176729'
p8108
g3
((lp8109
(S'D017706'
p8110
S'D006947'
p8111
tp8112
a(S'D017706'
p8113
S'D007674'
p8114
tp8115
a(S'D017706'
p8116
S'D007022'
p8117
tp8118
atRp8119
sS'24659727'
p8120
g3
((lp8121
(S'D003520'
p8122
S'D009503'
p8123
tp8124
a(S'D008130'
p8125
S'D009503'
p8126
tp8127
atRp8128
sS'3832950'
p8129
g3
((lp8130
(S'D002998'
p8131
S'D001259'
p8132
tp8133
a(S'D002998'
p8134
S'D006970'
p8135
tp8136
atRp8137
sS'19841052'
p8138
g3
((lp8139
(S'D016578'
p8140
S'D006679'
p8141
tp8142
atRp8143
sS'6305660'
p8144
g3
((lp8145
(S'D004966'
p8146
S'D059373'
p8147
tp8148
a(S'D017258'
p8149
S'D059373'
p8150
tp8151
atRp8152
sS'8392553'
p8153
g3
((lp8154
(S'D004837'
p8155
S'D009202'
p8156
tp8157
atRp8158
sS'2553470'
p8159
g3
((lp8160
(S'D010862'
p8161
S'D013226'
p8162
tp8163
a(S'D008094'
p8164
S'D013226'
p8165
tp8166
atRp8167
sS'9538487'
p8168
g3
((lp8169
(S'D008094'
p8170
S'D018500'
p8171
tp8172
a(S'D008094'
p8173
S'D011141'
p8174
tp8175
a(S'D008094'
p8176
S'D006944'
p8177
tp8178
atRp8179
sS'26002693'
p8180
g3
((lp8181
(S'C031763'
p8182
S'D010677'
p8183
tp8184
atRp8185
sS'18025637'
p8186
g3
((lp8187
(S'D005473'
p8188
S'D012170'
p8189
tp8190
a(S'D005473'
p8191
S'D006973'
p8192
tp8193
atRp8194
sS'12865514'
p8195
g3
((lp8196
(S'D007980'
p8197
S'D004409'
p8198
tp8199
atRp8200
sS'24739405'
p8201
g3
((lp8202
(S'D006220'
p8203
S'D002375'
p8204
tp8205
a(S'D006220'
p8206
S'D012559'
p8207
tp8208
a(S'D000661'
p8209
S'D012559'
p8210
tp8211
a(S'D001058'
p8212
S'D012559'
p8213
tp8214
atRp8215
sS'24126708'
p8216
g3
((lp8217
(S'D007980'
p8218
S'D004409'
p8219
tp8220
a(S'D007980'
p8221
S'D006212'
p8222
tp8223
atRp8224
sS'7931490'
p8225
g3
((lp8226
(S'D002945'
p8227
S'D014839'
p8228
tp8229
a(S'D017829'
p8230
S'D006261'
p8231
tp8232
a(S'D002945'
p8233
S'D009325'
p8234
tp8235
atRp8236
sS'20859899'
p8237
g3
((lp8238
(S'D013148'
p8239
S'D006947'
p8240
tp8241
a(S'D011188'
p8242
S'D001919'
p8243
tp8244
a(S'D017257'
p8245
S'D006947'
p8246
tp8247
atRp8248
sS'12119460'
p8249
g3
((lp8250
(S'D016685'
p8251
S'D006463'
p8252
tp8253
a(S'D002955'
p8254
S'D013921'
p8255
tp8256
a(S'D005472'
p8257
S'D013280'
p8258
tp8259
a(S'D005472'
p8260
S'D003967'
p8261
tp8262
a(S'D016685'
p8263
S'D013921'
p8264
tp8265
a(S'D005472'
p8266
S'D013921'
p8267
tp8268
a(S'D002955'
p8269
S'D006463'
p8270
tp8271
a(S'D002955'
p8272
S'D060831'
p8273
tp8274
a(S'D002955'
p8275
S'D014839'
p8276
tp8277
a(S'D005472'
p8278
S'D006463'
p8279
tp8280
a(S'D002955'
p8281
S'D013280'
p8282
tp8283
a(S'D016685'
p8284
S'D007970'
p8285
tp8286
a(S'D002955'
p8287
S'D003967'
p8288
tp8289
a(S'D016685'
p8290
S'D014839'
p8291
tp8292
a(S'D005472'
p8293
S'D007970'
p8294
tp8295
a(S'D005472'
p8296
S'D060831'
p8297
tp8298
a(S'D016685'
p8299
S'D013280'
p8300
tp8301
a(S'D016685'
p8302
S'D003967'
p8303
tp8304
a(S'D002955'
p8305
S'D007970'
p8306
tp8307
a(S'D005472'
p8308
S'D014839'
p8309
tp8310
a(S'D016685'
p8311
S'D060831'
p8312
tp8313
atRp8314
sS'12372954'
p8315
g3
((lp8316
(S'D009530'
p8317
S'D009395'
p8318
tp8319
a(S'D009530'
p8320
S'D018771'
p8321
tp8322
a(S'D009530'
p8323
S'D004802'
p8324
tp8325
a(S'D009530'
p8326
S'D005334'
p8327
tp8328
a(S'D009530'
p8329
S'D051437'
p8330
tp8331
atRp8332
sS'3975902'
p8333
g3
((lp8334
(S'C024986'
p8335
S'D006973'
p8336
tp8337
a(S'C024986'
p8338
S'D009202'
p8339
tp8340
atRp8341
sS'1424076'
p8342
g3
((lp8343
(S'D014750'
p8344
S'D007177'
p8345
tp8346
atRp8347
sS'17346443'
p8348
g3
((lp8349
(S'D010396'
p8350
S'D017512'
p8351
tp8352
atRp8353
sS'20408947'
p8354
g3
((lp8355
(S'D000082'
p8356
S'D056486'
p8357
tp8358
a(S'D000082'
p8359
S'D017114'
p8360
tp8361
atRp8362
sS'24582773'
p8363
g3
((lp8364
(S'C069541'
p8365
S'D011595'
p8366
tp8367
atRp8368
sS'3125850'
p8369
g3
((lp8370
(S'D013390'
p8371
S'D005207'
p8372
tp8373
atRp8374
sS'19108278'
p8375
g3
((lp8376
(S'D004837'
p8377
S'D001145'
p8378
tp8379
a(S'D010042'
p8380
S'D017180'
p8381
tp8382
a(S'D006221'
p8383
S'D001145'
p8384
tp8385
atRp8386
sS'1563460'
p8387
g3
((lp8388
(S'D014859'
p8389
S'D020758'
p8390
tp8391
atRp8392
sS'24333387'
p8393
g3
((lp8394
(S'D013311'
p8395
S'D008569'
p8396
tp8397
a(S'D013311'
p8398
S'D007249'
p8399
tp8400
atRp8401
sS'17554526'
p8402
g3
((lp8403
(S'D003042'
p8404
S'D001925'
p8405
tp8406
atRp8407
sS'24902786'
p8408
g3
((lp8409
(S'D005485'
p8410
S'D008569'
p8411
tp8412
a(S'C067431'
p8413
S'D008569'
p8414
tp8415
a(S'D013629'
p8416
S'D008569'
p8417
tp8418
a(S'D013311'
p8419
S'D008569'
p8420
tp8421
atRp8422
sS'15609701'
p8423
g3
((lp8424
(S'D013015'
p8425
S'D003329'
p8426
tp8427
atRp8428
sS'25006369'
p8429
g3
((lp8430
(S'D013390'
p8431
S'D005207'
p8432
tp8433
a(S'D013390'
p8434
S'D063806'
p8435
tp8436
atRp8437
sS'25054547'
p8438
g3
((lp8439
(S'D013390'
p8440
S'C537417'
p8441
tp8442
a(S'C049430'
p8443
S'C537417'
p8444
tp8445
a(S'C049430'
p8446
S'D001049'
p8447
tp8448
a(S'D013390'
p8449
S'D001049'
p8450
tp8451
atRp8452
sS'9428298'
p8453
g3
((lp8454
(S'D000420'
p8455
S'D001145'
p8456
tp8457
atRp8458
sS'24535067'
p8459
g3
((lp8460
(S'D005045'
p8461
S'D009207'
p8462
tp8463
atRp8464
sS'24927617'
p8465
g3
((lp8466
(S'D019821'
p8467
S'D012206'
p8468
tp8469
a(S'D019821'
p8470
S'D009135'
p8471
tp8472
a(S'C486464'
p8473
S'D012206'
p8474
tp8475
atRp8476
sS'8659767'
p8477
g3
((lp8478
(S'D004837'
p8479
S'D017180'
p8480
tp8481
atRp8482
sS'8819482'
p8483
g3
((lp8484
(S'D007545'
p8485
S'D017202'
p8486
tp8487
atRp8488
sS'24729111'
p8489
g3
((lp8490
(S'D000638'
p8491
S'D003128'
p8492
tp8493
a(S'D000638'
p8494
S'D007037'
p8495
tp8496
a(S'D000638'
p8497
S'D012131'
p8498
tp8499
a(S'D000638'
p8500
S'D007035'
p8501
tp8502
a(S'D000638'
p8503
S'D001919'
p8504
tp8505
atRp8506
sS'7479194'
p8507
g3
((lp8508
(S'D014295'
p8509
S'D008107'
p8510
tp8511
a(S'D015662'
p8512
S'D008107'
p8513
tp8514
a(S'D002506'
p8515
S'D013262'
p8516
tp8517
a(S'D002506'
p8518
S'D008107'
p8519
tp8520
a(S'D015662'
p8521
S'D013262'
p8522
tp8523
atRp8524
sS'20024739'
p8525
g3
((lp8526
(S'D000431'
p8527
S'D003866'
p8528
tp8529
atRp8530
sS'2400986'
p8531
g3
((lp8532
(S'D002066'
p8533
S'D012640'
p8534
tp8535
atRp8536
sS'12678199'
p8537
g3
((lp8538
(S'D000638'
p8539
S'D016171'
p8540
tp8541
atRp8542
sS'24088636'
p8543
g3
((lp8544
(S'C098010'
p8545
S'D009901'
p8546
tp8547
a(S'C098010'
p8548
S'C531767'
p8549
tp8550
atRp8551
sS'6299641'
p8552
g3
((lp8553
(S'D007545'
p8554
S'D013610'
p8555
tp8556
atRp8557
sS'2383364'
p8558
g3
((lp8559
(S'C048279'
p8560
S'D010146'
p8561
tp8562
atRp8563
sS'16810074'
p8564
g3
((lp8565
(S'D009569'
p8566
S'D006973'
p8567
tp8568
atRp8569
sS'10770468'
p8570
g3
((lp8571
(S'D008094'
p8572
S'D006934'
p8573
tp8574
atRp8575
sS'8996419'
p8576
g3
((lp8577
(S'D003276'
p8578
S'D054556'
p8579
tp8580
atRp8581
sS'3155884'
p8582
g3
((lp8583
(S'D007545'
p8584
S'D005355'
p8585
tp8586
a(S'D013311'
p8587
S'D003920'
p8588
tp8589
atRp8590
sS'10390729'
p8591
g3
((lp8592
(S'D009020'
p8593
S'D006948'
p8594
tp8595
atRp8596
sS'24911645'
p8597
g3
((lp8598
(S'D010862'
p8599
S'D013226'
p8600
tp8601
a(S'D010862'
p8602
S'D012640'
p8603
tp8604
atRp8605
sS'11385188'
p8606
g3
((lp8607
(S'D003042'
p8608
S'D003324'
p8609
tp8610
a(S'D003042'
p8611
S'D009202'
p8612
tp8613
atRp8614
sS'7457821'
p8615
g3
((lp8616
(S'D005045'
p8617
S'D014839'
p8618
tp8619
a(S'D005045'
p8620
S'D010146'
p8621
tp8622
a(S'D005045'
p8623
S'D011605'
p8624
tp8625
a(S'D005045'
p8626
S'D012140'
p8627
tp8628
a(S'D005045'
p8629
S'D009325'
p8630
tp8631
atRp8632
sS'3708328'
p8633
g3
((lp8634
(S'D010862'
p8635
S'D012640'
p8636
tp8637
atRp8638
sS'18422462'
p8639
g3
((lp8640
(S'D018119'
p8641
S'D010523'
p8642
tp8643
a(S'D019829'
p8644
S'D005076'
p8645
tp8646
atRp8647
sS'6529939'
p8648
g3
((lp8649
(S'D011433'
p8650
S'D012848'
p8651
tp8652
a(S'D011433'
p8653
S'D001146'
p8654
tp8655
atRp8656
sS'733189'
p8657
g3
((lp8658
(S'C000873'
p8659
S'D015356'
p8660
tp8661
atRp8662
sS'24464946'
p8663
g3
((lp8664
(S'D015251'
p8665
S'D066126'
p8666
tp8667
a(S'D015251'
p8668
S'D006333'
p8669
tp8670
atRp8671
sS'2453942'
p8672
g3
((lp8673
(S'D001556'
p8674
S'D012640'
p8675
tp8676
atRp8677
sS'15265979'
p8678
g3
((lp8679
(S'D000638'
p8680
S'D056486'
p8681
tp8682
a(S'D000638'
p8683
S'D006529'
p8684
tp8685
atRp8686
sS'19184102'
p8687
g3
((lp8688
(S'D014635'
p8689
S'D007333'
p8690
tp8691
a(S'D014635'
p8692
S'D009765'
p8693
tp8694
a(S'D014635'
p8695
S'D006946'
p8696
tp8697
a(S'D014635'
p8698
S'D065626'
p8699
tp8700
atRp8701
sS'12523489'
p8702
g3
((lp8703
(S'D003042'
p8704
S'D004409'
p8705
tp8706
a(S'D000661'
p8707
S'D004409'
p8708
tp8709
a(S'C057837'
p8710
S'D004409'
p8711
tp8712
atRp8713
sS'12487093'
p8714
g3
((lp8715
(S'D004837'
p8716
S'D006973'
p8717
tp8718
atRp8719
sS'2320485'
p8720
g3
((lp8721
(S'D008750'
p8722
S'D000743'
p8723
tp8724
atRp8725
sS'2718706'
p8726
g3
((lp8727
(S'D004737'
p8728
S'D007022'
p8729
tp8730
a(S'D007741'
p8731
S'D007022'
p8732
tp8733
a(S'D006221'
p8734
S'D007022'
p8735
tp8736
a(S'D007530'
p8737
S'D007022'
p8738
tp8739
atRp8740
sS'816141'
p8741
g3
((lp8742
(S'D002512'
p8743
S'D000743'
p8744
tp8745
atRp8746
sS'23949582'
p8747
g3
((lp8748
(S'D007069'
p8749
S'D003556'
p8750
tp8751
a(S'D007069'
p8752
S'D006470'
p8753
tp8754
atRp8755
sS'17035713'
p8756
g3
((lp8757
(S'D007069'
p8758
S'D007674'
p8759
tp8760
atRp8761
sS'23846525'
p8762
g3
((lp8763
(S'C055162'
p8764
S'D056486'
p8765
tp8766
atRp8767
sS'9889429'
p8768
g3
((lp8769
(S'D009543'
p8770
S'D005885'
p8771
tp8772
a(S'D016572'
p8773
S'D005885'
p8774
tp8775
a(S'D016572'
p8776
S'D006973'
p8777
tp8778
atRp8779
sS'15987266'
p8780
g3
((lp8781
(S'D010862'
p8782
S'D013226'
p8783
tp8784
atRp8785
sS'16092435'
p8786
g3
((lp8787
(S'D004317'
p8788
S'D009202'
p8789
tp8790
atRp8791
sS'11380496'
p8792
g3
((lp8793
(S'D011441'
p8794
S'D018771'
p8795
tp8796
a(S'D011441'
p8797
S'D005334'
p8798
tp8799
a(S'D011441'
p8800
S'D019226'
p8801
tp8802
atRp8803
sS'24438483'
p8804
g3
((lp8805
(S'D002045'
p8806
S'D066126'
p8807
tp8808
a(S'D002045'
p8809
S'D006323'
p8810
tp8811
atRp8812
sS'9646784'
p8813
g3
((lp8814
(S'D006493'
p8815
S'D013923'
p8816
tp8817
a(S'D006493'
p8818
S'D013921'
p8819
tp8820
a(S'D006493'
p8821
S'D000505'
p8822
tp8823
a(S'D006493'
p8824
S'D004802'
p8825
tp8826
a(S'D006493'
p8827
S'D012871'
p8828
tp8829
a(S'D006493'
p8830
S'D010024'
p8831
tp8832
a(S'D006493'
p8833
S'D004342'
p8834
tp8835
atRp8836
sS'6695685'
p8837
g3
((lp8838
(S'D014700'
p8839
S'D001145'
p8840
tp8841
atRp8842
sS'11936424'
p8843
g3
((lp8844
(S'D011692'
p8845
S'D011507'
p8846
tp8847
a(S'D011692'
p8848
S'D009401'
p8849
tp8850
atRp8851
sS'7671401'
p8852
g3
((lp8853
(S'D000806'
p8854
S'D000799'
p8855
tp8856
atRp8857
sS'3533179'
p8858
g3
((lp8859
(S'D003520'
p8860
S'D006333'
p8861
tp8862
atRp8863
sS'2782734'
p8864
g3
((lp8865
(S'D000420'
p8866
S'D014202'
p8867
tp8868
atRp8869
sS'20927253'
p8870
g3
((lp8871
(S'D019386'
p8872
S'D010146'
p8873
tp8874
atRp8875
sS'9128918'
p8876
g3
((lp8877
(S'D006220'
p8878
S'D006966'
p8879
tp8880
atRp8881
sS'3439580'
p8882
g3
((lp8883
(S'D007099'
p8884
S'D006973'
p8885
tp8886
atRp8887
sS'20129423'
p8888
g3
((lp8889
(S'D002220'
p8890
S'D012770'
p8891
tp8892
a(S'D002220'
p8893
S'D004802'
p8894
tp8895
a(S'D002220'
p8896
S'D004342'
p8897
tp8898
a(S'D002220'
p8899
S'D009205'
p8900
tp8901
atRp8902
sS'8096565'
p8903
g3
((lp8904
(S'D018170'
p8905
S'D009203'
p8906
tp8907
atRp8908
sS'7967231'
p8909
g3
((lp8910
(S'D010433'
p8911
S'D012640'
p8912
tp8913
a(S'D010852'
p8914
S'D012640'
p8915
tp8916
a(S'D001534'
p8917
S'D012640'
p8918
tp8919
atRp8920
sS'2931989'
p8921
g3
((lp8922
(S'D015474'
p8923
S'D014985'
p8924
tp8925
a(S'D015474'
p8926
S'D014786'
p8927
tp8928
a(S'D015474'
p8929
S'D003318'
p8930
tp8931
a(S'D015474'
p8932
S'D010211'
p8933
tp8934
a(S'D015474'
p8935
S'D003231'
p8936
tp8937
a(S'D015474'
p8938
S'D011559'
p8939
tp8940
a(S'D015474'
p8941
S'D010787'
p8942
tp8943
atRp8944
sS'12535818'
p8945
g3
((lp8946
(S'D000638'
p8947
S'D001919'
p8948
tp8949
atRp8950
sS'15096374'
p8951
g3
((lp8952
(S'D016559'
p8953
S'D012393'
p8954
tp8955
atRp8956
sS'6884395'
p8957
g3
((lp8958
(S'D003276'
p8959
S'D000784'
p8960
tp8961
atRp8962
sS'15094729'
p8963
g3
((lp8964
(S'D020888'
p8965
S'D014786'
p8966
tp8967
atRp8968
sS'946593'
p8969
g3
((lp8970
(S'D008727'
p8971
S'D010264'
p8972
tp8973
atRp8974
sS'24897009'
p8975
g3
((lp8976
(S'D004977'
p8977
S'D011115'
p8978
tp8979
a(S'D004977'
p8980
S'D014786'
p8981
tp8982
a(S'D004977'
p8983
S'D010292'
p8984
tp8985
a(S'D004977'
p8986
S'D009901'
p8987
tp8988
atRp8989
sS'24816962'
p8990
g3
((lp8991
(S'D008795'
p8992
S'D001927'
p8993
tp8994
atRp8995
sS'48835'
p8996
g3
((lp8997
(S'D011433'
p8998
S'D006973'
p8999
tp9000
atRp9001
sS'15321332'
p9002
g3
((lp9003
(S'D004329'
p9004
S'D001008'
p9005
tp9006
atRp9007
sS'17069550'
p9008
g3
((lp9009
(S'D005702'
p9010
S'D006261'
p9011
tp9012
atRp9013
sS'11366874'
p9014
g3
((lp9015
(S'D019888'
p9016
S'D001919'
p9017
tp9018
atRp9019
sS'25006961'
p9020
g3
((lp9021
(S'D008094'
p9022
S'D018500'
p9023
tp9024
a(S'D008094'
p9025
S'D011141'
p9026
tp9027
atRp9028
sS'12051122'
p9029
g3
((lp9030
(S'D014750'
p9031
S'D007177'
p9032
tp9033
a(S'D014750'
p9034
S'D007010'
p9035
tp9036
atRp9037
sS'4631913'
p9038
g3
((lp9039
(S'D014750'
p9040
S'D018805'
p9041
tp9042
a(S'D014750'
p9043
S'D011552'
p9044
tp9045
a(S'D014750'
p9046
S'D007970'
p9047
tp9048
atRp9049
sS'3383127'
p9050
g3
((lp9051
(S'D002945'
p9052
S'D007022'
p9053
tp9054
a(S'D002945'
p9055
S'D018487'
p9056
tp9057
a(S'D005472'
p9058
S'D018487'
p9059
tp9060
a(S'D005472'
p9061
S'D007022'
p9062
tp9063
atRp9064
sS'20959502'
p9065
g3
((lp9066
(S'D009254'
p9067
S'D009395'
p9068
tp9069
atRp9070
sS'6310832'
p9071
g3
((lp9072
(S'D016572'
p9073
S'D007239'
p9074
tp9075
a(S'D001379'
p9076
S'D007239'
p9077
tp9078
atRp9079
sS'8312343'
p9080
g3
((lp9081
(S'D004317'
p9082
S'D009202'
p9083
tp9084
atRp9085
sS'15614572'
p9086
g3
((lp9087
(S'D006220'
p9088
S'D002375'
p9089
tp9090
a(S'D001058'
p9091
S'D002375'
p9092
tp9093
atRp9094
sS'9125676'
p9095
g3
((lp9096
(S'D013015'
p9097
S'D016171'
p9098
tp9099
atRp9100
sS'15625689'
p9101
g3
((lp9102
(S'D007980'
p9103
S'D004409'
p9104
tp9105
atRp9106
sS'8829135'
p9107
g3
((lp9108
(S'D012601'
p9109
S'D007859'
p9110
tp9111
a(S'D001058'
p9112
S'D000647'
p9113
tp9114
atRp9115
sS'3323259'
p9116
g3
((lp9117
(S'D002121'
p9118
S'D005483'
p9119
tp9120
a(S'D002121'
p9121
S'D004487'
p9122
tp9123
a(S'D002121'
p9124
S'D006261'
p9125
tp9126
a(S'D002121'
p9127
S'D000855'
p9128
tp9129
a(S'D002121'
p9130
S'D004244'
p9131
tp9132
a(S'D002121'
p9133
S'D009325'
p9134
tp9135
atRp9136
sS'1756784'
p9137
g3
((lp9138
(S'D010862'
p9139
S'D001930'
p9140
tp9141
a(S'D010862'
p9142
S'D013226'
p9143
tp9144
a(S'D010862'
p9145
S'D001480'
p9146
tp9147
atRp9148
sS'16801510'
p9149
g3
((lp9150
(S'D008691'
p9151
S'D008133'
p9152
tp9153
atRp9154
sS'10401555'
p9155
g3
((lp9156
(S'D012601'
p9157
S'D007859'
p9158
tp9159
a(S'D012601'
p9160
S'D008569'
p9161
tp9162
atRp9163
sS'15630069'
p9164
g3
((lp9165
(S'C076029'
p9166
S'D007333'
p9167
tp9168
a(S'D003024'
p9169
S'D007333'
p9170
tp9171
atRp9172
sS'18801087'
p9173
g3
((lp9174
(S'D000638'
p9175
S'D055370'
p9176
tp9177
a(S'D000638'
p9178
S'D006486'
p9179
tp9180
a(S'D000638'
p9181
S'D015433'
p9182
tp9183
atRp9184
sS'18399341'
p9185
g3
((lp9186
(S'D002045'
p9187
S'D007022'
p9188
tp9189
atRp9190
sS'23872883'
p9191
g3
((lp9192
(S'D007545'
p9193
S'D066126'
p9194
tp9195
atRp9196
sS'3375885'
p9197
g3
((lp9198
(S'D008528'
p9199
S'D007674'
p9200
tp9201
a(S'D009288'
p9202
S'D006994'
p9203
tp9204
a(S'D007213'
p9205
S'D006994'
p9206
tp9207
a(S'D009288'
p9208
S'D006947'
p9209
tp9210
a(S'D007213'
p9211
S'D006947'
p9212
tp9213
atRp9214
sS'6728873'
p9215
g3
((lp9216
(S'D002110'
p9217
S'D012640'
p9218
tp9219
atRp9220
sS'11425091'
p9221
g3
((lp9222
(S'D003042'
p9223
S'D003560'
p9224
tp9225
a(S'D003042'
p9226
S'D007235'
p9227
tp9228
a(S'D003042'
p9229
S'D001927'
p9230
tp9231
atRp9232
sS'4082192'
p9233
g3
((lp9234
(S'C026729'
p9235
S'D007683'
p9236
tp9237
a(S'D000082'
p9238
S'D007683'
p9239
tp9240
atRp9241
sS'2429800'
p9242
g3
((lp9243
(S'D014403'
p9244
S'D007022'
p9245
tp9246
atRp9247
sS'24842192'
p9248
g3
((lp9249
(S'D007545'
p9250
S'D018487'
p9251
tp9252
a(S'D007545'
p9253
S'D009203'
p9254
tp9255
atRp9256
sS'8135424'
p9257
g3
((lp9258
(S'D003042'
p9259
S'D012640'
p9260
tp9261
a(S'D003975'
p9262
S'D012640'
p9263
tp9264
a(S'D005442'
p9265
S'D012640'
p9266
tp9267
atRp9268
sS'25096313'
p9269
g3
((lp9270
(S'D013256'
p9271
S'D010292'
p9272
tp9273
atRp9274
sS'3339945'
p9275
g3
((lp9276
(S'D000628'
p9277
S'D012640'
p9278
tp9279
atRp9280
sS'3685052'
p9281
g3
((lp9282
(S'D005481'
p9283
S'D007035'
p9284
tp9285
atRp9286
sS'978847'
p9287
g3
((lp9288
(S'D003891'
p9289
S'D006973'
p9290
tp9291
a(S'D002217'
p9292
S'D013610'
p9293
tp9294
a(S'D002217'
p9295
S'D006973'
p9296
tp9297
atRp9298
sS'24614773'
p9299
g3
((lp9300
(S'D014635'
p9301
S'D003221'
p9302
tp9303
a(S'D014635'
p9304
S'D003072'
p9305
tp9306
a(S'D014635'
p9307
S'D006212'
p9308
tp9309
atRp9310
sS'44072'
p9311
g3
((lp9312
(S'D004837'
p9313
S'D001145'
p9314
tp9315
a(S'D010042'
p9316
S'D001145'
p9317
tp9318
a(S'C024986'
p9319
S'D001145'
p9320
tp9321
a(S'D002725'
p9322
S'D001145'
p9323
tp9324
a(S'D000157'
p9325
S'D001145'
p9326
tp9327
atRp9328
sS'16083708'
p9329
g3
((lp9330
(S'D019980'
p9331
S'D056486'
p9332
tp9333
a(S'D019980'
p9334
S'D007565'
p9335
tp9336
atRp9337
sS'11835460'
p9338
g3
((lp9339
(S'D007980'
p9340
S'D015835'
p9341
tp9342
atRp9343
sS'24067251'
p9344
g3
((lp9345
(S'C418563'
p9346
S'D005198'
p9347
tp9348
a(S'C418563'
p9349
S'D058186'
p9350
tp9351
atRp9352
sS'1359137'
p9353
g3
((lp9354
(S'D001971'
p9355
S'D011618'
p9356
tp9357
a(S'D014150'
p9358
S'D000568'
p9359
tp9360
a(S'D014150'
p9361
S'D006966'
p9362
tp9363
a(S'D014150'
p9364
S'D009839'
p9365
tp9366
atRp9367
sS'10462057'
p9368
g3
((lp9369
(S'D017330'
p9370
S'D000741'
p9371
tp9372
a(S'D001554'
p9373
S'D000741'
p9374
tp9375
atRp9376
sS'3987172'
p9377
g3
((lp9378
(S'D010665'
p9379
S'D006973'
p9380
tp9381
atRp9382
sS'1289188'
p9383
g3
((lp9384
(S'D003676'
p9385
S'D051437'
p9386
tp9387
atRp9388
sS'24975837'
p9389
g3
((lp9390
(S'D002945'
p9391
S'D058186'
p9392
tp9393
a(S'D002945'
p9394
S'D015431'
p9395
tp9396
a(S'D002945'
p9397
S'D007683'
p9398
tp9399
atRp9400
sS'3538855'
p9401
g3
((lp9402
(S'D000617'
p9403
S'D007674'
p9404
tp9405
atRp9406
sS'25071004'
p9407
g3
((lp9408
(S'C039726'
p9409
S'D000743'
p9410
tp9411
atRp9412
sS'9831002'
p9413
g3
((lp9414
(S'D008774'
p9415
S'D009459'
p9416
tp9417
atRp9418
sS'10986547'
p9419
g3
((lp9420
(S'C076029'
p9421
S'D006970'
p9422
tp9423
a(S'C076029'
p9424
S'D015430'
p9425
tp9426
atRp9427
sS'9071336'
p9428
g3
((lp9429
(S'D017239'
p9430
S'D009503'
p9431
tp9432
a(S'D005472'
p9433
S'D009503'
p9434
tp9435
a(S'D002955'
p9436
S'D009503'
p9437
tp9438
atRp9439
sS'7661171'
p9440
g3
((lp9441
(S'D007213'
p9442
S'D007674'
p9443
tp9444
atRp9445
sS'20589632'
p9446
g3
((lp9447
(S'D014295'
p9448
S'D000743'
p9449
tp9450
atRp9451
sS'24434397'
p9452
g3
((lp9453
(S'D014148'
p9454
S'D004830'
p9455
tp9456
atRp9457
sS'7248895'
p9458
g3
((lp9459
(S'D003520'
p9460
S'D001749'
p9461
tp9462
a(S'D003520'
p9463
S'D006417'
p9464
tp9465
a(S'D003520'
p9466
S'D002277'
p9467
tp9468
atRp9469
sS'24684312'
p9470
g3
((lp9471
(S'D002211'
p9472
S'D006930'
p9473
tp9474
atRp9475
sS'15282950'
p9476
g3
((lp9477
(S'D007545'
p9478
S'D009202'
p9479
tp9480
a(S'D007545'
p9481
S'D009336'
p9482
tp9483
atRp9484
sS'15696449'
p9485
g3
((lp9486
(S'D008558'
p9487
S'D058186'
p9488
tp9489
atRp9490
sS'2974281'
p9491
g3
((lp9492
(S'D007545'
p9493
S'D006332'
p9494
tp9495
atRp9496
sS'25084821'
p9497
g3
((lp9498
(S'C069541'
p9499
S'D009503'
p9500
tp9501
a(S'C069541'
p9502
S'D005334'
p9503
tp9504
a(S'C069541'
p9505
S'D007970'
p9506
tp9507
atRp9508
sS'16906379'
p9509
g3
((lp9510
(S'D008911'
p9511
S'D010488'
p9512
tp9513
atRp9514
sS'24587916'
p9515
g3
((lp9516
(S'D003907'
p9517
S'D006973'
p9518
tp9519
a(S'D003907'
p9520
S'D015431'
p9521
tp9522
atRp9523
sS'17159032'
p9524
g3
((lp9525
(S'D006886'
p9526
S'D014786'
p9527
tp9528
atRp9529
sS'3812624'
p9530
g3
((lp9531
(S'D002220'
p9532
S'D015835'
p9533
tp9534
atRp9535
sS'8667442'
p9536
g3
((lp9537
(S'D000468'
p9538
S'D006934'
p9539
tp9540
a(S'D013392'
p9541
S'D010437'
p9542
tp9543
a(S'D002117'
p9544
S'D051437'
p9545
tp9546
a(S'D000468'
p9547
S'D000471'
p9548
tp9549
a(S'D002119'
p9550
S'D000471'
p9551
tp9552
a(S'D002117'
p9553
S'D000471'
p9554
tp9555
a(S'D002119'
p9556
S'D006934'
p9557
tp9558
a(S'D002117'
p9559
S'D006934'
p9560
tp9561
a(S'D002119'
p9562
S'D051437'
p9563
tp9564
a(S'D009853'
p9565
S'D010437'
p9566
tp9567
a(S'D002118'
p9568
S'D000471'
p9569
tp9570
a(S'D000468'
p9571
S'D051437'
p9572
tp9573
a(S'D002118'
p9574
S'D051437'
p9575
tp9576
a(S'D002118'
p9577
S'D006934'
p9578
tp9579
atRp9580
sS'17954033'
p9581
g3
((lp9582
(S'D006513'
p9583
S'D019694'
p9584
tp9585
atRp9586
sS'9869655'
p9587
g3
((lp9588
(S'D004997'
p9589
S'D002780'
p9590
tp9591
atRp9592
sS'24100055'
p9593
g3
((lp9594
(S'D006493'
p9595
S'D013921'
p9596
tp9597
atRp9598
sS'15229250'
p9599
g3
((lp9600
(S'D008694'
p9601
S'D001930'
p9602
tp9603
a(S'D008694'
p9604
S'D008569'
p9605
tp9606
atRp9607
sS'19178808'
p9608
g3
((lp9609
(S'D015742'
p9610
S'D007022'
p9611
tp9612
a(S'C071741'
p9613
S'D007022'
p9614
tp9615
atRp9616
sS'11474137'
p9617
g3
((lp9618
(S'D007612'
p9619
S'D034381'
p9620
tp9621
atRp9622
sS'6985297'
p9623
g3
((lp9624
(S'D015764'
p9625
S'D001919'
p9626
tp9627
atRp9628
sS'1280707'
p9629
g3
((lp9630
(S'D011374'
p9631
S'D001145'
p9632
tp9633
a(S'D004958'
p9634
S'D001145'
p9635
tp9636
a(S'D002045'
p9637
S'D001145'
p9638
tp9639
atRp9640
sS'24571687'
p9641
g3
((lp9642
(S'D020927'
p9643
S'D019462'
p9644
tp9645
a(S'D020927'
p9646
S'D001919'
p9647
tp9648
atRp9649
sS'20595935'
p9650
g3
((lp9651
(S'D018967'
p9652
S'D006966'
p9653
tp9654
atRp9655
sS'3475563'
p9656
g3
((lp9657
(S'D001507'
p9658
S'D002180'
p9659
tp9660
a(S'D001507'
p9661
S'D006685'
p9662
tp9663
atRp9664
sS'17042797'
p9665
g3
((lp9666
(S'D010862'
p9667
S'D013226'
p9668
tp9669
a(S'D010862'
p9670
S'D004833'
p9671
tp9672
atRp9673
sS'2818777'
p9674
g3
((lp9675
(S'D010672'
p9676
S'D017093'
p9677
tp9678
a(S'D010672'
p9679
S'D004342'
p9680
tp9681
atRp9682
sS'1837756'
p9683
g3
((lp9684
(S'D005473'
p9685
S'D010259'
p9686
tp9687
a(S'D000639'
p9688
S'D010259'
p9689
tp9690
atRp9691
sS'15482540'
p9692
g3
((lp9693
(S'D016898'
p9694
S'D000743'
p9695
tp9696
a(S'D012254'
p9697
S'D000743'
p9698
tp9699
atRp9700
sS'7644931'
p9701
g3
((lp9702
(S'D017239'
p9703
S'D018771'
p9704
tp9705
a(S'D017239'
p9706
S'D012678'
p9707
tp9708
a(S'D017239'
p9709
S'D006402'
p9710
tp9711
atRp9712
sS'10939760'
p9713
g3
((lp9714
(S'D013411'
p9715
S'D058186'
p9716
tp9717
a(S'D013411'
p9718
S'D007669'
p9719
tp9720
atRp9721
sS'10985896'
p9722
g3
((lp9723
(S'D004317'
p9724
S'D013280'
p9725
tp9726
a(S'D004317'
p9727
S'D003967'
p9728
tp9729
a(S'D004317'
p9730
S'D060831'
p9731
tp9732
atRp9733
sS'17572393'
p9734
g3
((lp9735
(S'D002330'
p9736
S'D054220'
p9737
tp9738
atRp9739
sS'18165598'
p9740
g3
((lp9741
(S'D002045'
p9742
S'D007249'
p9743
tp9744
a(S'D002045'
p9745
S'D010149'
p9746
tp9747
atRp9748
sS'15018178'
p9749
g3
((lp9750
(S'D015662'
p9751
S'D000743'
p9752
tp9753
atRp9754
sa.