ccollections
defaultdict
p1
(c__builtin__
set
p2
tRp3
V2N4124
p4
g2
((lp5
VMMBT4124
p6
aV2N4124
p7
atRp8
sVVISHS23888-1
p9
g2
((lp10
VBC549C
p11
aVBC549B
p12
aVBC549A
p13
aVBC548A
p14
aVBC548B
p15
aVBC548C
p16
aVBC546B
p17
aVBC547A
p18
aVBC546C
p19
aVBC547C
p20
aVBC547B
p21
aVBC549
p22
aVBC548
p23
aVBC546A
p24
aVBC547
p25
aVBC546
p26
atRp27
sVNXPUSAINC_PBSS5360PASX
p28
g2
((lp29
VPBSS5360PAS
p30
atRp31
sVFAIRCHILDSEMICONDUCTOR_KSC2310YTA
p32
g2
((lp33
VKSC2310
p34
aVKSC2310O
p35
aVKSC2310Y
p36
aVKSC2310R
p37
atRp38
sVAUKCS04635-1
p39
g2
((lp40
V2N3906
p41
atRp42
sVCENTRALSEMICONDUCTORCORP_2N4013
p43
g2
((lp44
V2N3576
p45
aV2N3829
p46
aVCM4209
p47
aV2N4963
p48
aV2N4962
p49
aV2N4026
p50
aV2N4027
p51
aV2N3700
p52
aV2N3701
p53
aV2N4028
p54
aV2N4359
p55
aV2N3798A
p56
aV2N4384
p57
aV2N4386
p58
aV2N4415A
p59
aV2N4013
p60
aV2N4137
p61
aV2N4035
p62
aV2N4034
p63
aV2N5056
p64
aV2N5057
p65
aV2N3672
p66
aV2N4269
p67
aV2N4014
p68
aV2N4207
p69
aV2N4208
p70
aV2N4209
p71
aV2N4068
p72
aV2N4413A
p73
aV2N4029
p74
aV2N3799A
p75
aV2N4390
p76
aV2N3946
p77
aV2N3947
p78
aV2N3964
p79
aV2N3965
p80
aV2N3962
p81
aV2N3963
p82
atRp83
sVMICROCOMMERCIALCO_TIP29ABP
p84
g2
((lp85
VTIP29
p86
aVTIP29B
p87
aVTIP29C
p88
aVTIP29A
p89
aVTIP30
p90
aVTIP30A
p91
aVTIP30B
p92
aVTIP30C
p93
atRp94
sVPJECS00521-1
p95
g2
((lp96
VMMBT3904
p97
atRp98
sVDISES00192-1
p99
g2
((lp100
VBC808
p101
aVBC808-40
p102
aVBC807
p103
aVBC808-25
p104
aVBC807-16
p105
aVBC808-16
p106
aVBC807-40
p107
aVBC807-25
p108
atRp109
sVBC546A_SERIES_B14-521026
p110
g2
((lp111
VBC549C
p112
aVBC549B
p113
aVBC549A
p114
aVBC550
p115
aVBC548A
p116
aVBC548B
p117
aVBC548C
p118
aVBC547A
p119
aVBC550B
p120
aVBC546B
p121
aVBC546C
p122
aVBC547C
p123
aVBC546A
p124
aVBC549
p125
aVBC548
p126
aVBC550C
p127
aVBC550A
p128
aVBC547B
p129
aVBC547
p130
aVBC546
p131
atRp132
sVVSMIS03793-1
p133
g2
((lp134
VBC818
p135
aVBC817-16
p136
aVBC818-16
p137
aVBC818-25
p138
aVBC817-40
p139
aVBC817
p140
aVBC818-40
p141
aVBC817-25
p142
atRp143
sVDISES00189-1
p144
g2
((lp145
VBC549XBK
p146
aVBC549C
p147
aVBC547A
p148
aVBC548AC
p149
aVBC547C
p150
aVBC549
p151
aVBC548
p152
aVBC547AC
p153
aVBC547
p154
aVBC546
p155
aVBC546AC
p156
aVBC547XBKC
p157
aVBC548XBK
p158
aVBC547XBK
p159
aVBC548A
p160
aVBC548XBKC
p161
aVBC548C
p162
aVBC546C
p163
aVBC546A
p164
aVBC546XBK
p165
aVBC549XBKC
p166
aVBC546XBKC
p167
atRp168
sVTTELECTRONICSOPTEKTECHNOLOGY_2N2222AUATXV
p169
g2
((lp170
V2N2222AUA
p171
atRp172
sVINFNS19372-1
p173
g2
((lp174
VSMBT3904S
p175
aVMMBT3904
p176
aVSMBT3904
p177
atRp178
sVPNJIS01453-1
p179
g2
((lp180
VBC846
p181
aVBC847
p182
aVBC846B
p183
aVBC850B
p184
aVBC848B
p185
aVBC848A
p186
aVBC846A
p187
aVBC847C
p188
aVBC847A
p189
aVBC848
p190
aVBC849
p191
aVBC847B
p192
aVBC848C
p193
aVBC849B
p194
aVBC849C
p195
aVBC850C
p196
aVBC850
p197
atRp198
sVSCSCS02324-1
p199
g2
((lp200
VMMBT3904
p201
atRp202
sVSANKEN_2SC4886
p203
g2
((lp204
V2SC4886
p205
atRp206
sVDISES00023-1
p207
g2
((lp208
V2N3906
p209
atRp210
sVRECTS01325-1
p211
g2
((lp212
VDTC114YCA-1
p213
aVDTC114YUA
p214
atRp215
sVDIODESINCORPORATED_FZT651TC
p216
g2
((lp217
VFZT651TA
p218
aVFZT651
p219
aVFZT651TC
p220
atRp221
sVCSEMS02742-1
p222
g2
((lp223
VBC846
p224
aVBC847
p225
aVBC846B
p226
aVBC848C
p227
aVBC848B
p228
aVBC848A
p229
aVBC846A
p230
aVBC847C
p231
aVBC847A
p232
aVBC848
p233
aVBC847B
p234
atRp235
sVBC818-40LT1-D
p236
g2
((lp237
VBC818-40LT1G
p238
aVBC818-40L
p239
aVNSVBC818-40L
p240
aVBC818-40LT1
p241
aVNSVBC818-40LT1G
p242
atRp243
sVSGSTS13734-1
p244
g2
((lp245
VBC337-40-AP
p246
aVBC337-25
p247
aVBC337-25-AP
p248
aVBC337-40
p249
atRp250
sVUTCLS01324-1
p251
g2
((lp252
VMMBT3904G-AE3-R
p253
aVMMBT3904-E
p254
aVMMBT3904
p255
aVMMBT3904L-AE3-R
p256
aVMMBT3904G-AL3-R
p257
aVMMBT3904L-AL3-R
p258
atRp259
sVMMMCS17742-1
p260
g2
((lp261
VBC807-25W
p262
aVBC807-16W
p263
aVBC807-40W
p264
atRp265
sVWEILS00082-1
p266
g2
((lp267
VBC857
p268
aVBC856
p269
aVBC859
p270
aVBC858
p271
aVBC857C
p272
aVBC857B
p273
aVBC857A
p274
aVBC856A
p275
aVBC856B
p276
aVBC858A
p277
aVBC858B
p278
aVBC858C
p279
aVBC859C
p280
aVBC859B
p281
atRp282
sVSTMICROELECTRONICS_STI130051
p283
g2
((lp284
VSTI13005-1
p285
atRp286
sVMOTOS03160-1
p287
g2
((lp288
VBC183
p289
aVBC182
p290
aVBC182B
p291
aVBC182A
p292
aVBC184
p293
atRp294
sVDISES00490-1
p295
g2
((lp296
VBC848W
p297
aVBC846AW
p298
aVBC849BW
p299
aVBC849CW
p300
aVBC847W
p301
aVBC847AW
p302
aVBC849W
p303
aVBC848AW
p304
aVBC848CW
p305
aVBC846BW
p306
aVBC848BW
p307
aVBC847BW
p308
aVBC847CW
p309
aVBC846W
p310
atRp311
sVMOTOS04796-1
p312
g2
((lp313
V2N6426
p314
aV2N6427
p315
atRp316
sVCENTRALSEMICONDUCTORCORP_CMPT5401ETR
p317
g2
((lp318
VCXT5551E
p319
aVCXT5551
p320
aVCMPT5401E
p321
aVCXT5401E
p322
aVCXT5401
p323
aVCMPT5551
p324
aVCMPT5551E
p325
aVCMPT5401
p326
atRp327
sVKECCS03676-1
p328
g2
((lp329
VBC846
p330
aVBC847
p331
aVBC857
p332
aVBC856
p333
aVBC848C
p334
aVBC857BC
p335
aVBC847C
p336
aVBC846C
p337
aVBC858
p338
aVBC848
p339
aVBC856AC
p340
aVBC857C
p341
aVBC857B
p342
aVBC857A
p343
aVBC856BC
p344
aVBC856A
p345
aVBC856B
p346
aVBC856C
p347
aVBC857AC
p348
aVBC858C
p349
atRp350
sVSANKEN_2SD2643
p351
g2
((lp352
V2SD2643
p353
atRp354
sVONSMS04099-1
p355
g2
((lp356
VMPS3904RLRA
p357
aVBC239
p358
aVBC238
p359
aVBC237C
p360
aVBC237B
p361
aVBC237A
p362
aVBC238C
p363
aVBC238B
p364
aVMPS3904
p365
aVBC237
p366
atRp367
sVLITES00424-1
p368
g2
((lp369
V2N3906
p370
aVMMBT3906
p371
atRp372
sVBC546_DIOTEC
p373
g2
((lp374
VBC549C
p375
aVBC549B
p376
aVBC549A
p377
aVBC548A
p378
aVBC548B
p379
aVBC548C
p380
aVBC546B
p381
aVBC547A
p382
aVBC546C
p383
aVBC547C
p384
aVBC547B
p385
aVBC549
p386
aVBC548
p387
aVBC546A
p388
aVBC547
p389
aVBC546
p390
atRp391
sVUTCLS02155-1
p392
g2
((lp393
VBC808
p394
aVBC808-40
p395
aVBC807
p396
aVBC808-25
p397
aVBC807-16
p398
aVBC808-16
p399
aVBC807-40
p400
aVBC807-25
p401
atRp402
sVRECTS01214-1
p403
g2
((lp404
VDTC114ECA-1
p405
aVDTC114EUA
p406
atRp407
sVCENTRALSEMICONDUCTORCORP_CENU45
p408
g2
((lp409
VCEN-U45
p410
atRp411
sVFAIRS25065-1
p412
g2
((lp413
VBC238A
p414
aVBC238B
p415
aVBC239
p416
aVBC238
p417
aVBC237C
p418
aVBC237B
p419
aVBC237A
p420
aVBC239A
p421
aVBC238C
p422
aVBC239C
p423
aVBC239B
p424
aVBC237
p425
atRp426
sV2N3906-D
p427
g2
((lp428
V2N3906RLRP
p429
aV2N3906
p430
aV2N3906RLRMG
p431
aV2N3906G
p432
aV2N3906RLRAG
p433
aV2N3906RLRA
p434
aV2N3906RLRPG
p435
aV2N3906RL1
p436
aV2N3906RL1G
p437
aV2N3906RLRM
p438
atRp439
sVKECCS05435-1
p440
g2
((lp441
VBC546B
p442
aVBC547A
p443
aVBC547C
p444
aVBC547B
p445
aVBC556C
p446
aVBC556B
p447
aVBC556A
p448
aVBC548
p449
aVBC547
p450
aVBC546
p451
aVBC558C
p452
aVBC558B
p453
aVBC556
p454
aVBC557
p455
aVBC548A
p456
aVBC548B
p457
aVBC548C
p458
aVBC558A
p459
aVBC558
p460
aVBC546C
p461
aVBC546A
p462
aVBC557A
p463
aVBC557B
p464
aVBC557C
p465
atRp466
sVLITES00686-1
p467
g2
((lp468
V2N4124
p469
atRp470
sVPNJIS01593-1
p471
g2
((lp472
VBC846
p473
aVBC857
p474
aVBC856
p475
aVBC859
p476
aVBC858
p477
aVBC849
p478
aVBC857C
p479
aVBC857B
p480
aVBC857A
p481
aVBC856A
p482
aVBC856B
p483
aVBC858A
p484
aVBC858B
p485
aVBC858C
p486
aVBC859C
p487
aVBC859B
p488
atRp489
sVPHGLS25601-1
p490
g2
((lp491
VBC846
p492
aVBC846A
p493
aVBC846B
p494
aVBC846BT
p495
aVBC846BW
p496
aVBC846AT
p497
aVBC846AW
p498
aVBC846T
p499
aVBC846W
p500
atRp501
sVCSEMS05383-1
p502
g2
((lp503
VBC818
p504
aVBC817-16
p505
aVBC817-40
p506
aVBC818-25
p507
aVBC818-16
p508
aVBC817
p509
aVBC818-40
p510
aVBC817-25
p511
atRp512
sVJCSTS01155-1
p513
g2
((lp514
V2N4124
p515
atRp516
sVLITES00689-1
p517
g2
((lp518
VBC337
p519
atRp520
sVDISES00242-1
p521
g2
((lp522
VMMBT3904
p523
atRp524
sVSGSTS13702-1
p525
g2
((lp526
VBC547B-AP
p527
aVBC547C-AP
p528
aVBC547C
p529
aVBC547B
p530
atRp531
sVMCCCS09540-1
p532
g2
((lp533
VBC846
p534
aVBC847
p535
aVBC846B
p536
aVBC848C
p537
aVBC848B
p538
aVBC848A
p539
aVBC846A
p540
aVBC847C
p541
aVBC847A
p542
aVBC848
p543
aVBC849
p544
aVBC847B
p545
aVBC846A-BC849C
p546
aVBC849B
p547
aVBC849C
p548
atRp549
sVBC337-D
p550
g2
((lp551
VBC337-040G
p552
aVBC337-25
p553
aVBC337
p554
aVBC337G
p555
aVBC337-40
p556
aVBC337RL1G
p557
aVBC337-025G
p558
aVBC337-25RLRAG
p559
aVBC337-25ZL1G
p560
aVBC337-40ZL1G
p561
aVBC337-25RL1G
p562
aVBC337-XX
p563
aVBC337-40RL1G
p564
atRp565
sVDIODESINCORPORATED_ZTX789ASTZ
p566
g2
((lp567
VZTX789A
p568
atRp569
sVMINDS00015-1
p570
g2
((lp571
V2N3904
p572
aVMMBT3904
p573
atRp574
sVLTSCS02910-1
p575
g2
((lp576
VBC818-16
p577
aVBC818
p578
aVBC818-REV
p579
aVBC818-25
p580
aVBC818-40
p581
atRp582
sVZETXS01948-1
p583
g2
((lp584
VBC858A-3J
p585
aVBC857
p586
aVBC856
p587
aVBC859B-4B
p588
aVBC859C-Z4C
p589
aVBC860
p590
aVBC859A-Z4A
p591
aVBC858
p592
aVBC859
p593
aVBC858C-3L
p594
aVBC860A-Z4E
p595
aVBC860C-4GZ
p596
aVBC857C-3G
p597
aVBC857B-3F
p598
aVBC858B-3K
p599
aVBC857A-Z3E
p600
aVBC856B-Z3B
p601
aVBC860B-4F
p602
aVBC860C
p603
atRp604
sVPNJIS00254-1
p605
g2
((lp606
VBC807-25W
p607
aVBC807-16W
p608
aVBC807-40W
p609
atRp610
sVMCCCS08818-1
p611
g2
((lp612
VDTC114YE
p613
atRp614
sVBC818
p615
g2
((lp616
VBC818
p617
aVBC81725MTF
p618
aVBC818-16
p619
aVBC818-25
p620
aVBC81840MTF
p621
aVBC81825MTF
p622
aVBC817-40
p623
aVBC817-16
p624
aVBC817
p625
aVBC81816MTF
p626
aVBC81716MTF
p627
aVBC81740MTF
p628
aVBC818-40
p629
aVBC817-25
p630
atRp631
sVSTMICROELECTRONICS_BUV48A
p632
g2
((lp633
VBUV48A
p634
atRp635
sVONSEMICONDUCTOR_MMBT6521LT1
p636
g2
((lp637
VMMBT6521LT1G
p638
aVAN569
p639
aVMMBT6521LT1
p640
atRp641
sVDIODESINCORPORATED_ZTX953STZ
p642
g2
((lp643
VZTX953
p644
atRp645
sVBOURNSINC_BD246BS
p646
g2
((lp647
VBD246B
p648
aVBD246
p649
aVBD246A
p650
aVTIS633AA
p651
aVBD246C
p652
atRp653
sVPNJIS01186-1
p654
g2
((lp655
VBC807-40
p656
aVBC807-25
p657
aVBC807-16
p658
aVBC807
p659
atRp660
sVPHGLS18216-1
p661
g2
((lp662
VBC847B
p663
aVBC847C
p664
aVBC847A
p665
aVBC547B
p666
aVBC847W
p667
aVBC847T
p668
aVBC847CM
p669
aVBC847AM
p670
aVBC547C
p671
aVBC847B/DG
p672
aVBC847AT
p673
aVBC847AW
p674
aVBC547
p675
aVBC847CW
p676
aVBC847CT
p677
aVBC847AT/DG
p678
aVBC847
p679
aVBC847DG
p680
aVBC847BM
p681
aVBC847BW/DG
p682
aVBC847BT
p683
aVBC847BW
p684
atRp685
sVINFINEON-BC857SERIES_BC858SERIES_BC859SERIES_BC860SERIES-DS-V01_01-EN
p686
g2
((lp687
VBC858CW
p688
aVBC857
p689
aVBC857W
p690
aVBC850
p691
aVBC859W
p692
aVBC859
p693
aVBC858
p694
aVBC857C
p695
aVBC857B
p696
aVBC857CW
p697
aVBC860BW
p698
aVBC859C
p699
aVBC857BL3
p700
aVBC857-BC860
p701
aVBC857W-BC860W
p702
aVBC860B
p703
aVBC858W
p704
aVBC860W
p705
aVBC860
p706
aVBC857BW
p707
aVBC860CW
p708
aVBC858B
p709
aVBC858C
p710
aVBC858BW
p711
aVBC858A
p712
aVBC857A
p713
atRp714
sVMICROSEMICORPORATION_2N2484UB
p715
g2
((lp716
V2N2484
p717
aV2N2484UB
p718
aV2N2484UA
p719
aV2N2484UBC
p720
atRp721
sVMMBT3904
p722
g2
((lp723
V2N3904TAR
p724
aV2N3904
p725
aVMMBT3904
p726
aVPZT3904
p727
aV2N3904BU
p728
aV2N3904TA
p729
aV2N3904TFR
p730
aV2N3904TF
p731
atRp732
sVTWSCS04757-1
p733
g2
((lp734
VBC807-40
p735
aVBC807-25
p736
aVBC807-16
p737
aVBC807
p738
aVBC807-XX
p739
atRp740
sV2N3906
p741
g2
((lp742
V2N3906BU
p743
aV2N3906
p744
aV2N3906TAR
p745
aVMMBT3906
p746
aVPZT3906
p747
aV2N3906TA
p748
aV2N3906TF
p749
aV2N3906TFR
p750
atRp751
sVLITES00690-1
p752
g2
((lp753
VBC546B
p754
aVBC547A
p755
aVBC547C
p756
aVBC547B
p757
aVBC556C
p758
aVBC556B
p759
aVBC556A
p760
aVBC548
p761
aVBC547
p762
aVBC546
p763
aVBC558C
p764
aVBC558B
p765
aVBC556
p766
aVBC557
p767
aVBC548A
p768
aVBC548B
p769
aVBC548C
p770
aVBC558A
p771
aVBC558
p772
aVBC546C
p773
aVBC546A
p774
aVBC557A
p775
aVBC557B
p776
aVBC557C
p777
atRp778
sVMCCCS09741-1
p779
g2
((lp780
VBC337-25
p781
aVBC338-40
p782
aVBC337-40
p783
aVBC338
p784
aVBC337
p785
aVBC337-16
p786
aVBC338-16
p787
aVBC338-25
p788
atRp789
sVTKCGS00622-1
p790
g2
((lp791
VDTC123EE
p792
aVDTC143EE
p793
aVDTC124XE
p794
aVDTC144EE
p795
aVDTC114EE
p796
aVDTC123JE
p797
aVDTC124EE
p798
aVDTC143TE
p799
aVDTC143ZE
p800
aVDTC114YE
p801
aVDTC114TE
p802
atRp803
sVBC547
p804
g2
((lp805
VBC546ATA
p806
aVBC548CTA
p807
aVBC548BTA
p808
aVBC547CTFR
p809
aVBC549C
p810
aVBC549B
p811
aVBC550C
p812
aVBC549BTA
p813
aVBC547A
p814
aVBC549BTF
p815
aVBC547C
p816
aVBC547B
p817
aVBC549
p818
aVBC548
p819
aVBC546ABU
p820
aVBC547ATA
p821
aVBC549CTA
p822
aVBC547
p823
aVBC546
p824
aVBC547BTF
p825
aVBC547BTA
p826
aVBC547BBU
p827
aVBC547CTA
p828
aVBC550CTA
p829
aVBC556
p830
aVBC550CBU
p831
aVBC550
p832
aVBC548B
p833
aVBC548C
p834
aVBC546B
p835
aVBC546C
p836
aVBC546A
p837
aVBC546BTF
p838
aVBC548BU
p839
aVBC547CBU
p840
aVBC546CTA
p841
aVBC546BTA
p842
atRp843
sVBC546
p844
g2
((lp845
VBC546ATA
p846
aVBC548CTA
p847
aVBC548BTA
p848
aVBC547CTFR
p849
aVBC549C
p850
aVBC549B
p851
aVBC550C
p852
aVBC549BTA
p853
aVBC547A
p854
aVBC549BTF
p855
aVBC547C
p856
aVBC547B
p857
aVBC549
p858
aVBC548
p859
aVBC546ABU
p860
aVBC547ATA
p861
aVBC549CTA
p862
aVBC547
p863
aVBC546
p864
aVBC547BTF
p865
aVBC547BTA
p866
aVBC547BBU
p867
aVBC547CTA
p868
aVBC550CTA
p869
aVBC556
p870
aVBC550CBU
p871
aVBC550
p872
aVBC548B
p873
aVBC548C
p874
aVBC546B
p875
aVBC546C
p876
aVBC546A
p877
aVBC546BTF
p878
aVBC548BU
p879
aVBC547CBU
p880
aVBC546CTA
p881
aVBC546BTA
p882
atRp883
sVPHGLS19500-1
p884
g2
((lp885
VMMBT3904
p886
atRp887
sVFAIRS19194-1
p888
g2
((lp889
VBC858B
p890
aVBC857
p891
aVBC856
p892
aVBC859
p893
aVBC859C
p894
aVBC860
p895
aVBC858
p896
aVBC859A
p897
aVBC857C
p898
aVBC857B
p899
aVBC857A
p900
aVBC856A
p901
aVBC856B
p902
aVBC856C
p903
aVBC858A
p904
aVBC859B
p905
aVBC860A
p906
aVBC858C
p907
aVBC860C
p908
aVBC860B
p909
atRp910
sVBC546-BC548C(TO-92)
p911
g2
((lp912
VBC546-BC548C
p913
aVBC548A
p914
aVBC548B
p915
aVBC548C
p916
aVBC547A
p917
aVBC546B
p918
aVBC547C
p919
aVBC547B
p920
aVBC548
p921
aVBC547
p922
aVBC546
p923
atRp924
sVMCCCS08610-1
p925
g2
((lp926
V2N4123
p927
aV2N4124
p928
atRp929
sVSCSCS02175-1
p930
g2
((lp931
VBC548A
p932
aVBC548B
p933
aVBC548C
p934
aVBC547A
p935
aVBC546B
p936
aVBC546C
p937
aVBC547C
p938
aVBC546A
p939
aVBC548
p940
aVBC547B
p941
aVBC547
p942
aVBC546
p943
atRp944
sVDIODESINCORPORATED_FCX491ATA
p945
g2
((lp946
VFCX491ATA
p947
aVFCX491AQTA
p948
aVFCX491A
p949
atRp950
sVBC182-D
p951
g2
((lp952
VBC182B
p953
aVBC182
p954
aVBC182BG
p955
aVBC182BRL1G
p956
aVBC182G
p957
atRp958
sVRECTS01002-1
p959
g2
((lp960
VMMBT3904
p961
atRp962
sVRECTS01242-1
p963
g2
((lp964
VBC857B
p965
aVBC857BLT1
p966
atRp967
sVCSEMS03485-1
p968
g2
((lp969
V2N3906
p970
aV2N3905
p971
atRp972
sVPHGLS20125-1
p973
g2
((lp974
VBC327
p975
aVBC327-25
p976
aVBC807-25W
p977
aVBC807W
p978
aVBC807-16W
p979
aVBC807
p980
aVBC327-40
p981
aVBC807-40W
p982
aVBC807-16
p983
aVBC807-40
p984
aVBC807-25
p985
aVBC327-16
p986
atRp987
sVDIODESINCORPORATED_ZXT690BKTC
p988
g2
((lp989
VZXT690B
p990
aVZXT690BKTC
p991
aVZXT690BK
p992
aVZXT690BKQTC
p993
atRp994
sVDIODESINCORPORATED_ZTX688BSTZ
p995
g2
((lp996
VZTX688B
p997
atRp998
sVBC550
p999
g2
((lp1000
VBC549C
p1001
aVBC549B
p1002
aVBC549A
p1003
aVBC550
p1004
aVBC548A
p1005
aVBC548B
p1006
aVBC548C
p1007
aVBC550B
p1008
aVBC550C
p1009
aVBC547A
p1010
aVBC546C
p1011
aVBC547C
p1012
aVBC547B
p1013
aVBC549
p1014
aVBC548
p1015
aVBC550A
p1016
aVBC546A
p1017
aVBC547
p1018
aVBC546
p1019
aVBC546B
p1020
atRp1021
sVMICROCOMMERCIALCO_2N3904AP
p1022
g2
((lp1023
V2N3904
p1024
atRp1025
sVRECTS01158-1
p1026
g2
((lp1027
VBC807-25
p1028
aVBC807-25LT1
p1029
atRp1030
sVLTSCS02920-1
p1031
g2
((lp1032
VBC857C
p1033
aVBC857B
p1034
aVBC857
p1035
aVBC857A
p1036
aVBC857-REV
p1037
atRp1038
sVDIODS00215-1
p1039
g2
((lp1040
V2N4124
p1041
atRp1042
sVDIODESINCORPORATED_2DD26527
p1043
g2
((lp1044
V2DD2652-7
p1045
aV2DD2652
p1046
atRp1047
sVVSMIS00373-1
p1048
g2
((lp1049
VBC337-25
p1050
aVBC338-40
p1051
aVBC337
p1052
aVBC338
p1053
aVBC337-40
p1054
aVBC337-16
p1055
aVBC338-16
p1056
aVBC338-25
p1057
atRp1058
sVDIODS13249-1
p1059
g2
((lp1060
VBC818
p1061
aVBC817-16
p1062
aVBC818-16
p1063
aVBC818-25
p1064
aVBC817
p1065
aVBC817-25
p1066
aVBC81840
p1067
atRp1068
sVPHGLS20126-1
p1069
g2
((lp1070
VBC817-16
p1071
aVBC337-25
p1072
aVBC817-16W
p1073
aVBC337-40
p1074
aVBC817-40
p1075
aVBC337
p1076
aVBC817
p1077
aVBC817W
p1078
aVBC337-16
p1079
aVBC817-25W
p1080
aVBC817-40W
p1081
aVBC817-25
p1082
atRp1083
sVWEITS00252-1
p1084
g2
((lp1085
VBC807-1
p1086
aVBC807-25
p1087
aVBC807-16
p1088
aVBC807-17
p1089
aVBC807-40
p1090
atRp1091
sV2N6426-D
p1092
g2
((lp1093
V2N6426RLRAG
p1094
aV2N6427G
p1095
aV2N6426
p1096
aV2N6427
p1097
aV2N6426G
p1098
aV2N6427RLRAG
p1099
atRp1100
sVBC546-D
p1101
g2
((lp1102
VBC548BZL1G
p1103
aVBC547ARLG
p1104
aVBC546BRL1
p1105
aVBC548CG
p1106
aVBC547A
p1107
aVBC547C
p1108
aVBC547B
p1109
aVBC547BRL1G
p1110
aVBC548
p1111
aVBC547CG
p1112
aVBC547BZL1G
p1113
aVBC547
p1114
aVBC546
p1115
aVBC546BZL1G
p1116
aVBC547ARL
p1117
aVBC548CZL1G
p1118
aVBC548BG
p1119
aVBC547CZL1G
p1120
aVBC548B
p1121
aVBC548C
p1122
aVBC546B
p1123
aVBC548BRL1G
p1124
aVBC547AZL1G
p1125
aVBC546BRL1G
p1126
aVBC547BG
p1127
aVBC546BG
p1128
atRp1129
sV112823
p1130
g2
((lp1131
VBC548BZL1G
p1132
aVBC547ARLG
p1133
aVBC546BRL1
p1134
aVBC548CG
p1135
aVBC547A
p1136
aVBC547C
p1137
aVBC547B
p1138
aVBC547BRL1G
p1139
aVBC548
p1140
aVBC547CG
p1141
aVBC547BZL1G
p1142
aVBC547
p1143
aVBC546
p1144
aVBC546BZL1G
p1145
aVBC547ARL
p1146
aVBC548CZL1G
p1147
aVBC548BG
p1148
aVBC547CZL1G
p1149
aVBC548B
p1150
aVBC548C
p1151
aVBC546B
p1152
aVBC548BRL1G
p1153
aVBC547AZL1G
p1154
aVBC546BRL1G
p1155
aVBC547BG
p1156
aVBC546BG
p1157
atRp1158
sVDISES00645-1
p1159
g2
((lp1160
VBC818K
p1161
aVBC817K-16
p1162
aVBC817K
p1163
aVBC818K-40
p1164
aVBC818K-25
p1165
aVBC818K-16
p1166
aVBC817K-25
p1167
aVBC817K-40
p1168
atRp1169
sVCENTRALSEMICONDUCTORCORP_CXT4033TR
p1170
g2
((lp1171
VCXT4033
p1172
atRp1173
sVBC337
p1174
g2
((lp1175
VBC33725TF
p1176
aVBC33725TFR
p1177
aVBC337-25
p1178
aVBC33725TA
p1179
aVBC338-40
p1180
aVBC337-40
p1181
aVBC338
p1182
aVBC337
p1183
aVBC33740BU
p1184
aVBC33716BU
p1185
aVBC337-16
p1186
aVBC33716TA
p1187
aVBC338-16
p1188
aVBC33825TA
p1189
aVBC33725BU
p1190
aVBC338-25
p1191
aVBC33740TA
p1192
aVBC33716TFR
p1193
aVBC33725TAR
p1194
atRp1195
sVMCCCS08984-1
p1196
g2
((lp1197
VMMBT3904
p1198
atRp1199
sVINFINEON-BC817KSERIES_BC818KSERIES-DS-V01_01-EN
p1200
g2
((lp1201
VBC817K-25W
p1202
aVBC818KW
p1203
aVBC818K
p1204
aVBC817K-16
p1205
aVBC818K-16W
p1206
aVBC817K
p1207
aVBC818K-40
p1208
aVBC817
p1209
aVBC817K-25
p1210
aVBC817KW
p1211
aVBC817K-16W
p1212
aVBC817K-40W
p1213
aVBC818
p1214
aVBC817K-40
p1215
atRp1216
sVRECTS00705-1
p1217
g2
((lp1218
VBC548C
p1219
aVBC546B
p1220
aVBC546C
p1221
aVBC547C
p1222
aVBC546A
p1223
aVBC548
p1224
aVBC547
p1225
aVBC546
p1226
atRp1227
sVDTC114W
p1228
g2
((lp1229
VDTC114WUA
p1230
aVDTC114WE
p1231
aVDTC114W
p1232
aVDTC114WKA
p1233
atRp1234
sVSANKEN_STD01N
p1235
g2
((lp1236
VSTD01P
p1237
aVSTD01PARE
p1238
aVSTD01N
p1239
atRp1240
sVPNJIS01305-1
p1241
g2
((lp1242
VMMBT3904
p1243
atRp1244
sVLTSCS02912-1
p1245
g2
((lp1246
VBC846W-REV
p1247
aVBC846AW
p1248
aVBC846W
p1249
aVBC846BW
p1250
atRp1251
sVCSEMS05382-1
p1252
g2
((lp1253
VBC546A
p1254
aVBC548A
p1255
aVBC548B
p1256
aVBC548C
p1257
aVBC546B
p1258
aVBC546-48ABC
p1259
aVBC547C
p1260
aVBC547B
p1261
aVBC548
p1262
aVBC547A
p1263
aVBC547
p1264
aVBC546
p1265
atRp1266
sVMOTOS03189-1
p1267
g2
((lp1268
VBC337-25
p1269
aVBC338-40
p1270
aVBC337-40
p1271
aVBC338
p1272
aVBC337
p1273
aVBC337-16
p1274
aVBC338-16
p1275
aVBC338-25
p1276
atRp1277
sVPHGLS20267-1
p1278
g2
((lp1279
VBP317
p1280
aV2N4124
p1281
atRp1282
sV2N4123-D
p1283
g2
((lp1284
V2N4124G
p1285
aV2N4123
p1286
aV2N4124
p1287
aV2N4123RLRM
p1288
atRp1289
sVBC182
p1290
g2
((lp1291
VBC182
p1292
atRp1293
sVBOURNSINC_TIP152S
p1294
g2
((lp1295
VTIP151
p1296
aVTIP150
p1297
aVBY205-600
p1298
aVTIP152
p1299
atRp1300
sVMOTOS04676-1
p1301
g2
((lp1302
V2N4123
p1303
aV2N4124
p1304
atRp1305
sV2N6427
p1306
g2
((lp1307
V2N6427
p1308
aVMMBT6427
p1309
atRp1310
sVDISES00616-1
p1311
g2
((lp1312
VBC860C
p1313
aVBC857
p1314
aVBC856
p1315
aVBC860
p1316
aVBC859
p1317
aVBC858
p1318
aVBC860B
p1319
aVBC857C
p1320
aVBC857B
p1321
aVBC857A
p1322
aVBC856A
p1323
aVBC856B
p1324
aVBC856C
p1325
aVBC858A
p1326
aVBC858B
p1327
aVBC858C
p1328
aVBC859C
p1329
aVBC859B
p1330
atRp1331
sVUTCLS03593-1
p1332
g2
((lp1333
VDTC114EL-AN3-R
p1334
aVDTC114EL-T9S-K
p1335
aVDTC114E-I
p1336
aVDTC114EL-T92-R
p1337
aVDTC114EL-AL3-R
p1338
aVDTC114E
p1339
aVDTC114EL-AE3-R
p1340
aVDTC114EL-T92-K
p1341
aVDTC114EG-AL3-R
p1342
aVDTC114EG-AN3-R
p1343
aVDTC114EG-T92-K
p1344
aVDTC114EG-T9S-K
p1345
aVDTC114EL-T92-B
p1346
aVDTC114EG-T92-B
p1347
aVDTC114EG-T92-R
p1348
aVDTC114EG-AE3-R
p1349
atRp1350
s.